

Microchip Technology PIC LITE Macro Assembler V1.44 build -154322312 
                                                                                               Sun Aug 05 13:20:49 2018

Microchip Technology Omniscient Code Generator v1.44 (Free mode) build 201709140600
     1                           	processor	16F18875
     2                           	opt	pw 120
     3                           	opt	lm
     4                           	psect	nvCOMMON,global,class=COMMON,space=1,delta=1
     5                           	psect	nvBANK0,global,class=BANK0,space=1,delta=1
     6                           	psect	cinit,global,class=CODE,merge=1,delta=2
     7                           	psect	bssCOMMON,global,class=COMMON,space=1,delta=1
     8                           	psect	bssBANK0,global,class=BANK0,space=1,delta=1
     9                           	psect	cstackCOMMON,global,class=COMMON,space=1,delta=1
    10                           	psect	cstackBANK0,global,class=BANK0,space=1,delta=1
    11                           	psect	maintext,global,class=CODE,merge=1,split=1,delta=2
    12                           	psect	text1,local,class=CODE,merge=1,delta=2
    13                           	psect	text2,local,class=CODE,merge=1,delta=2
    14                           	psect	text3,local,class=CODE,merge=1,delta=2
    15                           	psect	text4,local,class=CODE,merge=1,delta=2
    16                           	psect	text5,local,class=CODE,merge=1,delta=2
    17                           	psect	text6,local,class=CODE,merge=1,delta=2
    18                           	psect	text7,local,class=CODE,merge=1,delta=2
    19                           	psect	text8,local,class=CODE,merge=1,delta=2
    20                           	psect	text9,local,class=CODE,merge=1,delta=2
    21                           	psect	intentry,global,class=CODE,delta=2
    22                           	psect	text11,local,class=CODE,merge=1,delta=2
    23                           	psect	text12,local,class=CODE,merge=1,delta=2
    24                           	psect	text13,local,class=CODE,merge=1,delta=2
    25                           	dabs	1,0x7E,2
    26  0000                     
    27                           ; Version 1.44
    28                           ; Generated 14/09/2017 GMT
    29                           ; 
    30                           ; Copyright © 2017, Microchip Technology Inc. and its subsidiaries ("Microchip")
    31                           ; All rights reserved.
    32                           ; 
    33                           ; This software is developed by Microchip Technology Inc. and its subsidiaries ("Microch
      +                          ip").
    34                           ; 
    35                           ; Redistribution and use in source and binary forms, with or without modification, are
    36                           ; permitted provided that the following conditions are met:
    37                           ; 
    38                           ;     1. Redistributions of source code must retain the above copyright notice, this lis
      +                          t of
    39                           ;        conditions and the following disclaimer.
    40                           ; 
    41                           ;     2. Redistributions in binary form must reproduce the above copyright notice, this 
      +                          list
    42                           ;        of conditions and the following disclaimer in the documentation and/or other
    43                           ;        materials provided with the distribution.
    44                           ; 
    45                           ;     3. Microchip's name may not be used to endorse or promote products derived from th
      +                          is
    46                           ;        software without specific prior written permission.
    47                           ; 
    48                           ; THIS SOFTWARE IS PROVIDED BY MICROCHIP "AS IS" AND ANY EXPRESS OR IMPLIED WARRANTIES,
    49                           ; INCLUDING, BUT NOT LIMITED TO, THE IMPLIED WARRANTIES OF MERCHANTABILITY AND FITNESS F
      +                          OR
    50                           ; PURPOSE ARE DISCLAIMED.  IN NO EVENT SHALL MICROCHIP BE LIABLE FOR ANY DIRECT, INDIREC
      +                          T,
    51                           ; INCIDENTAL, SPECIAL, EXEMPLARY, OR CONSEQUENTIAL DAMAGES (INCLUDING BUT NOT LIMITED TO
    52                           ; PROCUREMENT OF SUBSTITUTE GOODS OR SERVICES; LOSS OF USE, DATA OR PROFITS; OR BUSINESS
    53                           ; INTERRUPTION) HOWSOEVER CAUSED AND ON ANY THEORY OF LIABILITY, WHETHER IN CONTRACT, ST
      +                          RICT
    54                           ; LIABILITY, OR TORT (INCLUDING NEGLIGENCE OR OTHERWISE) ARISING IN ANY WAY OUT OF THE U
      +                          SE OF
    55                           ; THIS SOFTWARE, EVEN IF ADVISED OF THE POSSIBILITY OF SUCH DAMAGE.
    56                           ; 
    57                           ; 
    58                           ; Code-generator required, PIC16F18875 Definitions
    59                           ; 
    60                           ; SFR Addresses
    61  0000                     	;# 
    62  0001                     	;# 
    63  0002                     	;# 
    64  0003                     	;# 
    65  0004                     	;# 
    66  0005                     	;# 
    67  0006                     	;# 
    68  0007                     	;# 
    69  0008                     	;# 
    70  0009                     	;# 
    71  000A                     	;# 
    72  000B                     	;# 
    73  000C                     	;# 
    74  000D                     	;# 
    75  000E                     	;# 
    76  000F                     	;# 
    77  0010                     	;# 
    78  0011                     	;# 
    79  0012                     	;# 
    80  0013                     	;# 
    81  0014                     	;# 
    82  0015                     	;# 
    83  0016                     	;# 
    84  0017                     	;# 
    85  0018                     	;# 
    86  0019                     	;# 
    87  001A                     	;# 
    88  001C                     	;# 
    89  001C                     	;# 
    90  001D                     	;# 
    91  001D                     	;# 
    92  001E                     	;# 
    93  001F                     	;# 
    94  008C                     	;# 
    95  008C                     	;# 
    96  008D                     	;# 
    97  008E                     	;# 
    98  008E                     	;# 
    99  008F                     	;# 
   100  0090                     	;# 
   101  0090                     	;# 
   102  0091                     	;# 
   103  0093                     	;# 
   104  0094                     	;# 
   105  0095                     	;# 
   106  0096                     	;# 
   107  0097                     	;# 
   108  0098                     	;# 
   109  0099                     	;# 
   110  009A                     	;# 
   111  009B                     	;# 
   112  009C                     	;# 
   113  009D                     	;# 
   114  009E                     	;# 
   115  010C                     	;# 
   116  010D                     	;# 
   117  010E                     	;# 
   118  010E                     	;# 
   119  010F                     	;# 
   120  0110                     	;# 
   121  0110                     	;# 
   122  0111                     	;# 
   123  0112                     	;# 
   124  0112                     	;# 
   125  0113                     	;# 
   126  0114                     	;# 
   127  0114                     	;# 
   128  0115                     	;# 
   129  0116                     	;# 
   130  0116                     	;# 
   131  0117                     	;# 
   132  0119                     	;# 
   133  0119                     	;# 
   134  0119                     	;# 
   135  011A                     	;# 
   136  011A                     	;# 
   137  011A                     	;# 
   138  011B                     	;# 
   139  011B                     	;# 
   140  011B                     	;# 
   141  011B                     	;# 
   142  011B                     	;# 
   143  011C                     	;# 
   144  011C                     	;# 
   145  011C                     	;# 
   146  011D                     	;# 
   147  011D                     	;# 
   148  011D                     	;# 
   149  011E                     	;# 
   150  011E                     	;# 
   151  011E                     	;# 
   152  011F                     	;# 
   153  011F                     	;# 
   154  011F                     	;# 
   155  011F                     	;# 
   156  011F                     	;# 
   157  018C                     	;# 
   158  018D                     	;# 
   159  018E                     	;# 
   160  018F                     	;# 
   161  0190                     	;# 
   162  0191                     	;# 
   163  0192                     	;# 
   164  0196                     	;# 
   165  0197                     	;# 
   166  0198                     	;# 
   167  0199                     	;# 
   168  019A                     	;# 
   169  019B                     	;# 
   170  019C                     	;# 
   171  020C                     	;# 
   172  020C                     	;# 
   173  020D                     	;# 
   174  020E                     	;# 
   175  020F                     	;# 
   176  020F                     	;# 
   177  0210                     	;# 
   178  0210                     	;# 
   179  0211                     	;# 
   180  0211                     	;# 
   181  0212                     	;# 
   182  0212                     	;# 
   183  0213                     	;# 
   184  0214                     	;# 
   185  0215                     	;# 
   186  0215                     	;# 
   187  0216                     	;# 
   188  0216                     	;# 
   189  0217                     	;# 
   190  0217                     	;# 
   191  0218                     	;# 
   192  0218                     	;# 
   193  0219                     	;# 
   194  021A                     	;# 
   195  021B                     	;# 
   196  021B                     	;# 
   197  021C                     	;# 
   198  021C                     	;# 
   199  021D                     	;# 
   200  021D                     	;# 
   201  021E                     	;# 
   202  021F                     	;# 
   203  028C                     	;# 
   204  028C                     	;# 
   205  028D                     	;# 
   206  028D                     	;# 
   207  028E                     	;# 
   208  028F                     	;# 
   209  0290                     	;# 
   210  0290                     	;# 
   211  0291                     	;# 
   212  0292                     	;# 
   213  0292                     	;# 
   214  0293                     	;# 
   215  0293                     	;# 
   216  0294                     	;# 
   217  0295                     	;# 
   218  0296                     	;# 
   219  0296                     	;# 
   220  0297                     	;# 
   221  0298                     	;# 
   222  0298                     	;# 
   223  0299                     	;# 
   224  0299                     	;# 
   225  029A                     	;# 
   226  029B                     	;# 
   227  029C                     	;# 
   228  029C                     	;# 
   229  029D                     	;# 
   230  030C                     	;# 
   231  030C                     	;# 
   232  030D                     	;# 
   233  030E                     	;# 
   234  030F                     	;# 
   235  0310                     	;# 
   236  0310                     	;# 
   237  0311                     	;# 
   238  0312                     	;# 
   239  0313                     	;# 
   240  0314                     	;# 
   241  0314                     	;# 
   242  0315                     	;# 
   243  0316                     	;# 
   244  0317                     	;# 
   245  0318                     	;# 
   246  0318                     	;# 
   247  0319                     	;# 
   248  031A                     	;# 
   249  031B                     	;# 
   250  031C                     	;# 
   251  031C                     	;# 
   252  031D                     	;# 
   253  031E                     	;# 
   254  031F                     	;# 
   255  038C                     	;# 
   256  038D                     	;# 
   257  038E                     	;# 
   258  0390                     	;# 
   259  0391                     	;# 
   260  0392                     	;# 
   261  040C                     	;# 
   262  040D                     	;# 
   263  040E                     	;# 
   264  040F                     	;# 
   265  0410                     	;# 
   266  0411                     	;# 
   267  0416                     	;# 
   268  0416                     	;# 
   269  0417                     	;# 
   270  0418                     	;# 
   271  0418                     	;# 
   272  0419                     	;# 
   273  041A                     	;# 
   274  041A                     	;# 
   275  041B                     	;# 
   276  041C                     	;# 
   277  041C                     	;# 
   278  041D                     	;# 
   279  041E                     	;# 
   280  041F                     	;# 
   281  048C                     	;# 
   282  048C                     	;# 
   283  048D                     	;# 
   284  048E                     	;# 
   285  048F                     	;# 
   286  048F                     	;# 
   287  0490                     	;# 
   288  0491                     	;# 
   289  0492                     	;# 
   290  0492                     	;# 
   291  0493                     	;# 
   292  0494                     	;# 
   293  0495                     	;# 
   294  0495                     	;# 
   295  0496                     	;# 
   296  0497                     	;# 
   297  0498                     	;# 
   298  0499                     	;# 
   299  049A                     	;# 
   300  049B                     	;# 
   301  049C                     	;# 
   302  049D                     	;# 
   303  050C                     	;# 
   304  050C                     	;# 
   305  050D                     	;# 
   306  050E                     	;# 
   307  050F                     	;# 
   308  050F                     	;# 
   309  0510                     	;# 
   310  0511                     	;# 
   311  0512                     	;# 
   312  0512                     	;# 
   313  0513                     	;# 
   314  0514                     	;# 
   315  0515                     	;# 
   316  0515                     	;# 
   317  0516                     	;# 
   318  0517                     	;# 
   319  0518                     	;# 
   320  0519                     	;# 
   321  051A                     	;# 
   322  051B                     	;# 
   323  051C                     	;# 
   324  051D                     	;# 
   325  058C                     	;# 
   326  058C                     	;# 
   327  058D                     	;# 
   328  058E                     	;# 
   329  058F                     	;# 
   330  058F                     	;# 
   331  0590                     	;# 
   332  0591                     	;# 
   333  0592                     	;# 
   334  0593                     	;# 
   335  060C                     	;# 
   336  060D                     	;# 
   337  060E                     	;# 
   338  060F                     	;# 
   339  0610                     	;# 
   340  0611                     	;# 
   341  0612                     	;# 
   342  0613                     	;# 
   343  0614                     	;# 
   344  0616                     	;# 
   345  0617                     	;# 
   346  0618                     	;# 
   347  0619                     	;# 
   348  061A                     	;# 
   349  061B                     	;# 
   350  061C                     	;# 
   351  061D                     	;# 
   352  061E                     	;# 
   353  068C                     	;# 
   354  068D                     	;# 
   355  068E                     	;# 
   356  068F                     	;# 
   357  0690                     	;# 
   358  0691                     	;# 
   359  0692                     	;# 
   360  0693                     	;# 
   361  0694                     	;# 
   362  070C                     	;# 
   363  070D                     	;# 
   364  070E                     	;# 
   365  070F                     	;# 
   366  0710                     	;# 
   367  0711                     	;# 
   368  0712                     	;# 
   369  0713                     	;# 
   370  0714                     	;# 
   371  0716                     	;# 
   372  0717                     	;# 
   373  0718                     	;# 
   374  0719                     	;# 
   375  071A                     	;# 
   376  071B                     	;# 
   377  071C                     	;# 
   378  071D                     	;# 
   379  071E                     	;# 
   380  0796                     	;# 
   381  0797                     	;# 
   382  0798                     	;# 
   383  0799                     	;# 
   384  079A                     	;# 
   385  079B                     	;# 
   386  080C                     	;# 
   387  080D                     	;# 
   388  080E                     	;# 
   389  080F                     	;# 
   390  0810                     	;# 
   391  0811                     	;# 
   392  0812                     	;# 
   393  0813                     	;# 
   394  0814                     	;# 
   395  081A                     	;# 
   396  081B                     	;# 
   397  081C                     	;# 
   398  081D                     	;# 
   399  081E                     	;# 
   400  081F                     	;# 
   401  088C                     	;# 
   402  088D                     	;# 
   403  088E                     	;# 
   404  088F                     	;# 
   405  0890                     	;# 
   406  0891                     	;# 
   407  0892                     	;# 
   408  0893                     	;# 
   409  0895                     	;# 
   410  0896                     	;# 
   411  0897                     	;# 
   412  0898                     	;# 
   413  0899                     	;# 
   414  089A                     	;# 
   415  089B                     	;# 
   416  090C                     	;# 
   417  090E                     	;# 
   418  090F                     	;# 
   419  091F                     	;# 
   420  091F                     	;# 
   421  098F                     	;# 
   422  098F                     	;# 
   423  0990                     	;# 
   424  0991                     	;# 
   425  0992                     	;# 
   426  0993                     	;# 
   427  0994                     	;# 
   428  0995                     	;# 
   429  0996                     	;# 
   430  0997                     	;# 
   431  0E0F                     	;# 
   432  0E10                     	;# 
   433  0E11                     	;# 
   434  0E12                     	;# 
   435  0E13                     	;# 
   436  0E14                     	;# 
   437  0E15                     	;# 
   438  0E16                     	;# 
   439  0E17                     	;# 
   440  0E18                     	;# 
   441  0E19                     	;# 
   442  0E1A                     	;# 
   443  0E1B                     	;# 
   444  0E1C                     	;# 
   445  0E1D                     	;# 
   446  0E1E                     	;# 
   447  0E1F                     	;# 
   448  0E20                     	;# 
   449  0E21                     	;# 
   450  0E22                     	;# 
   451  0E23                     	;# 
   452  0E24                     	;# 
   453  0E25                     	;# 
   454  0E26                     	;# 
   455  0E27                     	;# 
   456  0E28                     	;# 
   457  0E29                     	;# 
   458  0E2A                     	;# 
   459  0E2B                     	;# 
   460  0E2C                     	;# 
   461  0E2D                     	;# 
   462  0E2E                     	;# 
   463  0E2F                     	;# 
   464  0E30                     	;# 
   465  0E31                     	;# 
   466  0E32                     	;# 
   467  0E33                     	;# 
   468  0E34                     	;# 
   469  0E35                     	;# 
   470  0E36                     	;# 
   471  0E37                     	;# 
   472  0E8F                     	;# 
   473  0E90                     	;# 
   474  0E91                     	;# 
   475  0E92                     	;# 
   476  0E93                     	;# 
   477  0E94                     	;# 
   478  0E95                     	;# 
   479  0E96                     	;# 
   480  0E97                     	;# 
   481  0E9C                     	;# 
   482  0E9D                     	;# 
   483  0E9E                     	;# 
   484  0EA1                     	;# 
   485  0EA2                     	;# 
   486  0EA3                     	;# 
   487  0EA4                     	;# 
   488  0EA5                     	;# 
   489  0EA9                     	;# 
   490  0EAA                     	;# 
   491  0EAB                     	;# 
   492  0EAC                     	;# 
   493  0EB1                     	;# 
   494  0EB2                     	;# 
   495  0EB3                     	;# 
   496  0EB8                     	;# 
   497  0EB9                     	;# 
   498  0EBA                     	;# 
   499  0EBB                     	;# 
   500  0EBC                     	;# 
   501  0EBD                     	;# 
   502  0EBE                     	;# 
   503  0EC3                     	;# 
   504  0EC5                     	;# 
   505  0EC6                     	;# 
   506  0EC7                     	;# 
   507  0EC8                     	;# 
   508  0EC9                     	;# 
   509  0ECA                     	;# 
   510  0ECB                     	;# 
   511  0ECC                     	;# 
   512  0F10                     	;# 
   513  0F11                     	;# 
   514  0F12                     	;# 
   515  0F13                     	;# 
   516  0F14                     	;# 
   517  0F15                     	;# 
   518  0F16                     	;# 
   519  0F17                     	;# 
   520  0F18                     	;# 
   521  0F19                     	;# 
   522  0F1A                     	;# 
   523  0F1B                     	;# 
   524  0F1C                     	;# 
   525  0F1D                     	;# 
   526  0F1E                     	;# 
   527  0F1F                     	;# 
   528  0F20                     	;# 
   529  0F21                     	;# 
   530  0F22                     	;# 
   531  0F23                     	;# 
   532  0F24                     	;# 
   533  0F25                     	;# 
   534  0F26                     	;# 
   535  0F27                     	;# 
   536  0F28                     	;# 
   537  0F29                     	;# 
   538  0F2A                     	;# 
   539  0F2B                     	;# 
   540  0F2C                     	;# 
   541  0F2D                     	;# 
   542  0F2E                     	;# 
   543  0F2F                     	;# 
   544  0F30                     	;# 
   545  0F31                     	;# 
   546  0F32                     	;# 
   547  0F38                     	;# 
   548  0F39                     	;# 
   549  0F3A                     	;# 
   550  0F3B                     	;# 
   551  0F3C                     	;# 
   552  0F3D                     	;# 
   553  0F3E                     	;# 
   554  0F3F                     	;# 
   555  0F40                     	;# 
   556  0F41                     	;# 
   557  0F43                     	;# 
   558  0F44                     	;# 
   559  0F45                     	;# 
   560  0F46                     	;# 
   561  0F47                     	;# 
   562  0F48                     	;# 
   563  0F49                     	;# 
   564  0F4A                     	;# 
   565  0F4B                     	;# 
   566  0F4C                     	;# 
   567  0F4E                     	;# 
   568  0F4F                     	;# 
   569  0F50                     	;# 
   570  0F51                     	;# 
   571  0F52                     	;# 
   572  0F53                     	;# 
   573  0F54                     	;# 
   574  0F55                     	;# 
   575  0F56                     	;# 
   576  0F57                     	;# 
   577  0F59                     	;# 
   578  0F5A                     	;# 
   579  0F5B                     	;# 
   580  0F5C                     	;# 
   581  0F5D                     	;# 
   582  0F61                     	;# 
   583  0F62                     	;# 
   584  0F64                     	;# 
   585  0F65                     	;# 
   586  0F66                     	;# 
   587  0F67                     	;# 
   588  0F68                     	;# 
   589  0F69                     	;# 
   590  0F6A                     	;# 
   591  0F6B                     	;# 
   592  0F6C                     	;# 
   593  0F6D                     	;# 
   594  0FE4                     	;# 
   595  0FE5                     	;# 
   596  0FE6                     	;# 
   597  0FE7                     	;# 
   598  0FE8                     	;# 
   599  0FE9                     	;# 
   600  0FEA                     	;# 
   601  0FEB                     	;# 
   602  0FED                     	;# 
   603  0FEE                     	;# 
   604  0FEF                     	;# 
   605  0000                     	;# 
   606  0001                     	;# 
   607  0002                     	;# 
   608  0003                     	;# 
   609  0004                     	;# 
   610  0005                     	;# 
   611  0006                     	;# 
   612  0007                     	;# 
   613  0008                     	;# 
   614  0009                     	;# 
   615  000A                     	;# 
   616  000B                     	;# 
   617  000C                     	;# 
   618  000D                     	;# 
   619  000E                     	;# 
   620  000F                     	;# 
   621  0010                     	;# 
   622  0011                     	;# 
   623  0012                     	;# 
   624  0013                     	;# 
   625  0014                     	;# 
   626  0015                     	;# 
   627  0016                     	;# 
   628  0017                     	;# 
   629  0018                     	;# 
   630  0019                     	;# 
   631  001A                     	;# 
   632  001C                     	;# 
   633  001C                     	;# 
   634  001D                     	;# 
   635  001D                     	;# 
   636  001E                     	;# 
   637  001F                     	;# 
   638  008C                     	;# 
   639  008C                     	;# 
   640  008D                     	;# 
   641  008E                     	;# 
   642  008E                     	;# 
   643  008F                     	;# 
   644  0090                     	;# 
   645  0090                     	;# 
   646  0091                     	;# 
   647  0093                     	;# 
   648  0094                     	;# 
   649  0095                     	;# 
   650  0096                     	;# 
   651  0097                     	;# 
   652  0098                     	;# 
   653  0099                     	;# 
   654  009A                     	;# 
   655  009B                     	;# 
   656  009C                     	;# 
   657  009D                     	;# 
   658  009E                     	;# 
   659  010C                     	;# 
   660  010D                     	;# 
   661  010E                     	;# 
   662  010E                     	;# 
   663  010F                     	;# 
   664  0110                     	;# 
   665  0110                     	;# 
   666  0111                     	;# 
   667  0112                     	;# 
   668  0112                     	;# 
   669  0113                     	;# 
   670  0114                     	;# 
   671  0114                     	;# 
   672  0115                     	;# 
   673  0116                     	;# 
   674  0116                     	;# 
   675  0117                     	;# 
   676  0119                     	;# 
   677  0119                     	;# 
   678  0119                     	;# 
   679  011A                     	;# 
   680  011A                     	;# 
   681  011A                     	;# 
   682  011B                     	;# 
   683  011B                     	;# 
   684  011B                     	;# 
   685  011B                     	;# 
   686  011B                     	;# 
   687  011C                     	;# 
   688  011C                     	;# 
   689  011C                     	;# 
   690  011D                     	;# 
   691  011D                     	;# 
   692  011D                     	;# 
   693  011E                     	;# 
   694  011E                     	;# 
   695  011E                     	;# 
   696  011F                     	;# 
   697  011F                     	;# 
   698  011F                     	;# 
   699  011F                     	;# 
   700  011F                     	;# 
   701  018C                     	;# 
   702  018D                     	;# 
   703  018E                     	;# 
   704  018F                     	;# 
   705  0190                     	;# 
   706  0191                     	;# 
   707  0192                     	;# 
   708  0196                     	;# 
   709  0197                     	;# 
   710  0198                     	;# 
   711  0199                     	;# 
   712  019A                     	;# 
   713  019B                     	;# 
   714  019C                     	;# 
   715  020C                     	;# 
   716  020C                     	;# 
   717  020D                     	;# 
   718  020E                     	;# 
   719  020F                     	;# 
   720  020F                     	;# 
   721  0210                     	;# 
   722  0210                     	;# 
   723  0211                     	;# 
   724  0211                     	;# 
   725  0212                     	;# 
   726  0212                     	;# 
   727  0213                     	;# 
   728  0214                     	;# 
   729  0215                     	;# 
   730  0215                     	;# 
   731  0216                     	;# 
   732  0216                     	;# 
   733  0217                     	;# 
   734  0217                     	;# 
   735  0218                     	;# 
   736  0218                     	;# 
   737  0219                     	;# 
   738  021A                     	;# 
   739  021B                     	;# 
   740  021B                     	;# 
   741  021C                     	;# 
   742  021C                     	;# 
   743  021D                     	;# 
   744  021D                     	;# 
   745  021E                     	;# 
   746  021F                     	;# 
   747  028C                     	;# 
   748  028C                     	;# 
   749  028D                     	;# 
   750  028D                     	;# 
   751  028E                     	;# 
   752  028F                     	;# 
   753  0290                     	;# 
   754  0290                     	;# 
   755  0291                     	;# 
   756  0292                     	;# 
   757  0292                     	;# 
   758  0293                     	;# 
   759  0293                     	;# 
   760  0294                     	;# 
   761  0295                     	;# 
   762  0296                     	;# 
   763  0296                     	;# 
   764  0297                     	;# 
   765  0298                     	;# 
   766  0298                     	;# 
   767  0299                     	;# 
   768  0299                     	;# 
   769  029A                     	;# 
   770  029B                     	;# 
   771  029C                     	;# 
   772  029C                     	;# 
   773  029D                     	;# 
   774  030C                     	;# 
   775  030C                     	;# 
   776  030D                     	;# 
   777  030E                     	;# 
   778  030F                     	;# 
   779  0310                     	;# 
   780  0310                     	;# 
   781  0311                     	;# 
   782  0312                     	;# 
   783  0313                     	;# 
   784  0314                     	;# 
   785  0314                     	;# 
   786  0315                     	;# 
   787  0316                     	;# 
   788  0317                     	;# 
   789  0318                     	;# 
   790  0318                     	;# 
   791  0319                     	;# 
   792  031A                     	;# 
   793  031B                     	;# 
   794  031C                     	;# 
   795  031C                     	;# 
   796  031D                     	;# 
   797  031E                     	;# 
   798  031F                     	;# 
   799  038C                     	;# 
   800  038D                     	;# 
   801  038E                     	;# 
   802  0390                     	;# 
   803  0391                     	;# 
   804  0392                     	;# 
   805  040C                     	;# 
   806  040D                     	;# 
   807  040E                     	;# 
   808  040F                     	;# 
   809  0410                     	;# 
   810  0411                     	;# 
   811  0416                     	;# 
   812  0416                     	;# 
   813  0417                     	;# 
   814  0418                     	;# 
   815  0418                     	;# 
   816  0419                     	;# 
   817  041A                     	;# 
   818  041A                     	;# 
   819  041B                     	;# 
   820  041C                     	;# 
   821  041C                     	;# 
   822  041D                     	;# 
   823  041E                     	;# 
   824  041F                     	;# 
   825  048C                     	;# 
   826  048C                     	;# 
   827  048D                     	;# 
   828  048E                     	;# 
   829  048F                     	;# 
   830  048F                     	;# 
   831  0490                     	;# 
   832  0491                     	;# 
   833  0492                     	;# 
   834  0492                     	;# 
   835  0493                     	;# 
   836  0494                     	;# 
   837  0495                     	;# 
   838  0495                     	;# 
   839  0496                     	;# 
   840  0497                     	;# 
   841  0498                     	;# 
   842  0499                     	;# 
   843  049A                     	;# 
   844  049B                     	;# 
   845  049C                     	;# 
   846  049D                     	;# 
   847  050C                     	;# 
   848  050C                     	;# 
   849  050D                     	;# 
   850  050E                     	;# 
   851  050F                     	;# 
   852  050F                     	;# 
   853  0510                     	;# 
   854  0511                     	;# 
   855  0512                     	;# 
   856  0512                     	;# 
   857  0513                     	;# 
   858  0514                     	;# 
   859  0515                     	;# 
   860  0515                     	;# 
   861  0516                     	;# 
   862  0517                     	;# 
   863  0518                     	;# 
   864  0519                     	;# 
   865  051A                     	;# 
   866  051B                     	;# 
   867  051C                     	;# 
   868  051D                     	;# 
   869  058C                     	;# 
   870  058C                     	;# 
   871  058D                     	;# 
   872  058E                     	;# 
   873  058F                     	;# 
   874  058F                     	;# 
   875  0590                     	;# 
   876  0591                     	;# 
   877  0592                     	;# 
   878  0593                     	;# 
   879  060C                     	;# 
   880  060D                     	;# 
   881  060E                     	;# 
   882  060F                     	;# 
   883  0610                     	;# 
   884  0611                     	;# 
   885  0612                     	;# 
   886  0613                     	;# 
   887  0614                     	;# 
   888  0616                     	;# 
   889  0617                     	;# 
   890  0618                     	;# 
   891  0619                     	;# 
   892  061A                     	;# 
   893  061B                     	;# 
   894  061C                     	;# 
   895  061D                     	;# 
   896  061E                     	;# 
   897  068C                     	;# 
   898  068D                     	;# 
   899  068E                     	;# 
   900  068F                     	;# 
   901  0690                     	;# 
   902  0691                     	;# 
   903  0692                     	;# 
   904  0693                     	;# 
   905  0694                     	;# 
   906  070C                     	;# 
   907  070D                     	;# 
   908  070E                     	;# 
   909  070F                     	;# 
   910  0710                     	;# 
   911  0711                     	;# 
   912  0712                     	;# 
   913  0713                     	;# 
   914  0714                     	;# 
   915  0716                     	;# 
   916  0717                     	;# 
   917  0718                     	;# 
   918  0719                     	;# 
   919  071A                     	;# 
   920  071B                     	;# 
   921  071C                     	;# 
   922  071D                     	;# 
   923  071E                     	;# 
   924  0796                     	;# 
   925  0797                     	;# 
   926  0798                     	;# 
   927  0799                     	;# 
   928  079A                     	;# 
   929  079B                     	;# 
   930  080C                     	;# 
   931  080D                     	;# 
   932  080E                     	;# 
   933  080F                     	;# 
   934  0810                     	;# 
   935  0811                     	;# 
   936  0812                     	;# 
   937  0813                     	;# 
   938  0814                     	;# 
   939  081A                     	;# 
   940  081B                     	;# 
   941  081C                     	;# 
   942  081D                     	;# 
   943  081E                     	;# 
   944  081F                     	;# 
   945  088C                     	;# 
   946  088D                     	;# 
   947  088E                     	;# 
   948  088F                     	;# 
   949  0890                     	;# 
   950  0891                     	;# 
   951  0892                     	;# 
   952  0893                     	;# 
   953  0895                     	;# 
   954  0896                     	;# 
   955  0897                     	;# 
   956  0898                     	;# 
   957  0899                     	;# 
   958  089A                     	;# 
   959  089B                     	;# 
   960  090C                     	;# 
   961  090E                     	;# 
   962  090F                     	;# 
   963  091F                     	;# 
   964  091F                     	;# 
   965  098F                     	;# 
   966  098F                     	;# 
   967  0990                     	;# 
   968  0991                     	;# 
   969  0992                     	;# 
   970  0993                     	;# 
   971  0994                     	;# 
   972  0995                     	;# 
   973  0996                     	;# 
   974  0997                     	;# 
   975  0E0F                     	;# 
   976  0E10                     	;# 
   977  0E11                     	;# 
   978  0E12                     	;# 
   979  0E13                     	;# 
   980  0E14                     	;# 
   981  0E15                     	;# 
   982  0E16                     	;# 
   983  0E17                     	;# 
   984  0E18                     	;# 
   985  0E19                     	;# 
   986  0E1A                     	;# 
   987  0E1B                     	;# 
   988  0E1C                     	;# 
   989  0E1D                     	;# 
   990  0E1E                     	;# 
   991  0E1F                     	;# 
   992  0E20                     	;# 
   993  0E21                     	;# 
   994  0E22                     	;# 
   995  0E23                     	;# 
   996  0E24                     	;# 
   997  0E25                     	;# 
   998  0E26                     	;# 
   999  0E27                     	;# 
  1000  0E28                     	;# 
  1001  0E29                     	;# 
  1002  0E2A                     	;# 
  1003  0E2B                     	;# 
  1004  0E2C                     	;# 
  1005  0E2D                     	;# 
  1006  0E2E                     	;# 
  1007  0E2F                     	;# 
  1008  0E30                     	;# 
  1009  0E31                     	;# 
  1010  0E32                     	;# 
  1011  0E33                     	;# 
  1012  0E34                     	;# 
  1013  0E35                     	;# 
  1014  0E36                     	;# 
  1015  0E37                     	;# 
  1016  0E8F                     	;# 
  1017  0E90                     	;# 
  1018  0E91                     	;# 
  1019  0E92                     	;# 
  1020  0E93                     	;# 
  1021  0E94                     	;# 
  1022  0E95                     	;# 
  1023  0E96                     	;# 
  1024  0E97                     	;# 
  1025  0E9C                     	;# 
  1026  0E9D                     	;# 
  1027  0E9E                     	;# 
  1028  0EA1                     	;# 
  1029  0EA2                     	;# 
  1030  0EA3                     	;# 
  1031  0EA4                     	;# 
  1032  0EA5                     	;# 
  1033  0EA9                     	;# 
  1034  0EAA                     	;# 
  1035  0EAB                     	;# 
  1036  0EAC                     	;# 
  1037  0EB1                     	;# 
  1038  0EB2                     	;# 
  1039  0EB3                     	;# 
  1040  0EB8                     	;# 
  1041  0EB9                     	;# 
  1042  0EBA                     	;# 
  1043  0EBB                     	;# 
  1044  0EBC                     	;# 
  1045  0EBD                     	;# 
  1046  0EBE                     	;# 
  1047  0EC3                     	;# 
  1048  0EC5                     	;# 
  1049  0EC6                     	;# 
  1050  0EC7                     	;# 
  1051  0EC8                     	;# 
  1052  0EC9                     	;# 
  1053  0ECA                     	;# 
  1054  0ECB                     	;# 
  1055  0ECC                     	;# 
  1056  0F10                     	;# 
  1057  0F11                     	;# 
  1058  0F12                     	;# 
  1059  0F13                     	;# 
  1060  0F14                     	;# 
  1061  0F15                     	;# 
  1062  0F16                     	;# 
  1063  0F17                     	;# 
  1064  0F18                     	;# 
  1065  0F19                     	;# 
  1066  0F1A                     	;# 
  1067  0F1B                     	;# 
  1068  0F1C                     	;# 
  1069  0F1D                     	;# 
  1070  0F1E                     	;# 
  1071  0F1F                     	;# 
  1072  0F20                     	;# 
  1073  0F21                     	;# 
  1074  0F22                     	;# 
  1075  0F23                     	;# 
  1076  0F24                     	;# 
  1077  0F25                     	;# 
  1078  0F26                     	;# 
  1079  0F27                     	;# 
  1080  0F28                     	;# 
  1081  0F29                     	;# 
  1082  0F2A                     	;# 
  1083  0F2B                     	;# 
  1084  0F2C                     	;# 
  1085  0F2D                     	;# 
  1086  0F2E                     	;# 
  1087  0F2F                     	;# 
  1088  0F30                     	;# 
  1089  0F31                     	;# 
  1090  0F32                     	;# 
  1091  0F38                     	;# 
  1092  0F39                     	;# 
  1093  0F3A                     	;# 
  1094  0F3B                     	;# 
  1095  0F3C                     	;# 
  1096  0F3D                     	;# 
  1097  0F3E                     	;# 
  1098  0F3F                     	;# 
  1099  0F40                     	;# 
  1100  0F41                     	;# 
  1101  0F43                     	;# 
  1102  0F44                     	;# 
  1103  0F45                     	;# 
  1104  0F46                     	;# 
  1105  0F47                     	;# 
  1106  0F48                     	;# 
  1107  0F49                     	;# 
  1108  0F4A                     	;# 
  1109  0F4B                     	;# 
  1110  0F4C                     	;# 
  1111  0F4E                     	;# 
  1112  0F4F                     	;# 
  1113  0F50                     	;# 
  1114  0F51                     	;# 
  1115  0F52                     	;# 
  1116  0F53                     	;# 
  1117  0F54                     	;# 
  1118  0F55                     	;# 
  1119  0F56                     	;# 
  1120  0F57                     	;# 
  1121  0F59                     	;# 
  1122  0F5A                     	;# 
  1123  0F5B                     	;# 
  1124  0F5C                     	;# 
  1125  0F5D                     	;# 
  1126  0F61                     	;# 
  1127  0F62                     	;# 
  1128  0F64                     	;# 
  1129  0F65                     	;# 
  1130  0F66                     	;# 
  1131  0F67                     	;# 
  1132  0F68                     	;# 
  1133  0F69                     	;# 
  1134  0F6A                     	;# 
  1135  0F6B                     	;# 
  1136  0F6C                     	;# 
  1137  0F6D                     	;# 
  1138  0FE4                     	;# 
  1139  0FE5                     	;# 
  1140  0FE6                     	;# 
  1141  0FE7                     	;# 
  1142  0FE8                     	;# 
  1143  0FE9                     	;# 
  1144  0FEA                     	;# 
  1145  0FEB                     	;# 
  1146  0FED                     	;# 
  1147  0FEE                     	;# 
  1148  0FEF                     	;# 
  1149  0000                     	;# 
  1150  0001                     	;# 
  1151  0002                     	;# 
  1152  0003                     	;# 
  1153  0004                     	;# 
  1154  0005                     	;# 
  1155  0006                     	;# 
  1156  0007                     	;# 
  1157  0008                     	;# 
  1158  0009                     	;# 
  1159  000A                     	;# 
  1160  000B                     	;# 
  1161  000C                     	;# 
  1162  000D                     	;# 
  1163  000E                     	;# 
  1164  000F                     	;# 
  1165  0010                     	;# 
  1166  0011                     	;# 
  1167  0012                     	;# 
  1168  0013                     	;# 
  1169  0014                     	;# 
  1170  0015                     	;# 
  1171  0016                     	;# 
  1172  0017                     	;# 
  1173  0018                     	;# 
  1174  0019                     	;# 
  1175  001A                     	;# 
  1176  001C                     	;# 
  1177  001C                     	;# 
  1178  001D                     	;# 
  1179  001D                     	;# 
  1180  001E                     	;# 
  1181  001F                     	;# 
  1182  008C                     	;# 
  1183  008C                     	;# 
  1184  008D                     	;# 
  1185  008E                     	;# 
  1186  008E                     	;# 
  1187  008F                     	;# 
  1188  0090                     	;# 
  1189  0090                     	;# 
  1190  0091                     	;# 
  1191  0093                     	;# 
  1192  0094                     	;# 
  1193  0095                     	;# 
  1194  0096                     	;# 
  1195  0097                     	;# 
  1196  0098                     	;# 
  1197  0099                     	;# 
  1198  009A                     	;# 
  1199  009B                     	;# 
  1200  009C                     	;# 
  1201  009D                     	;# 
  1202  009E                     	;# 
  1203  010C                     	;# 
  1204  010D                     	;# 
  1205  010E                     	;# 
  1206  010E                     	;# 
  1207  010F                     	;# 
  1208  0110                     	;# 
  1209  0110                     	;# 
  1210  0111                     	;# 
  1211  0112                     	;# 
  1212  0112                     	;# 
  1213  0113                     	;# 
  1214  0114                     	;# 
  1215  0114                     	;# 
  1216  0115                     	;# 
  1217  0116                     	;# 
  1218  0116                     	;# 
  1219  0117                     	;# 
  1220  0119                     	;# 
  1221  0119                     	;# 
  1222  0119                     	;# 
  1223  011A                     	;# 
  1224  011A                     	;# 
  1225  011A                     	;# 
  1226  011B                     	;# 
  1227  011B                     	;# 
  1228  011B                     	;# 
  1229  011B                     	;# 
  1230  011B                     	;# 
  1231  011C                     	;# 
  1232  011C                     	;# 
  1233  011C                     	;# 
  1234  011D                     	;# 
  1235  011D                     	;# 
  1236  011D                     	;# 
  1237  011E                     	;# 
  1238  011E                     	;# 
  1239  011E                     	;# 
  1240  011F                     	;# 
  1241  011F                     	;# 
  1242  011F                     	;# 
  1243  011F                     	;# 
  1244  011F                     	;# 
  1245  018C                     	;# 
  1246  018D                     	;# 
  1247  018E                     	;# 
  1248  018F                     	;# 
  1249  0190                     	;# 
  1250  0191                     	;# 
  1251  0192                     	;# 
  1252  0196                     	;# 
  1253  0197                     	;# 
  1254  0198                     	;# 
  1255  0199                     	;# 
  1256  019A                     	;# 
  1257  019B                     	;# 
  1258  019C                     	;# 
  1259  020C                     	;# 
  1260  020C                     	;# 
  1261  020D                     	;# 
  1262  020E                     	;# 
  1263  020F                     	;# 
  1264  020F                     	;# 
  1265  0210                     	;# 
  1266  0210                     	;# 
  1267  0211                     	;# 
  1268  0211                     	;# 
  1269  0212                     	;# 
  1270  0212                     	;# 
  1271  0213                     	;# 
  1272  0214                     	;# 
  1273  0215                     	;# 
  1274  0215                     	;# 
  1275  0216                     	;# 
  1276  0216                     	;# 
  1277  0217                     	;# 
  1278  0217                     	;# 
  1279  0218                     	;# 
  1280  0218                     	;# 
  1281  0219                     	;# 
  1282  021A                     	;# 
  1283  021B                     	;# 
  1284  021B                     	;# 
  1285  021C                     	;# 
  1286  021C                     	;# 
  1287  021D                     	;# 
  1288  021D                     	;# 
  1289  021E                     	;# 
  1290  021F                     	;# 
  1291  028C                     	;# 
  1292  028C                     	;# 
  1293  028D                     	;# 
  1294  028D                     	;# 
  1295  028E                     	;# 
  1296  028F                     	;# 
  1297  0290                     	;# 
  1298  0290                     	;# 
  1299  0291                     	;# 
  1300  0292                     	;# 
  1301  0292                     	;# 
  1302  0293                     	;# 
  1303  0293                     	;# 
  1304  0294                     	;# 
  1305  0295                     	;# 
  1306  0296                     	;# 
  1307  0296                     	;# 
  1308  0297                     	;# 
  1309  0298                     	;# 
  1310  0298                     	;# 
  1311  0299                     	;# 
  1312  0299                     	;# 
  1313  029A                     	;# 
  1314  029B                     	;# 
  1315  029C                     	;# 
  1316  029C                     	;# 
  1317  029D                     	;# 
  1318  030C                     	;# 
  1319  030C                     	;# 
  1320  030D                     	;# 
  1321  030E                     	;# 
  1322  030F                     	;# 
  1323  0310                     	;# 
  1324  0310                     	;# 
  1325  0311                     	;# 
  1326  0312                     	;# 
  1327  0313                     	;# 
  1328  0314                     	;# 
  1329  0314                     	;# 
  1330  0315                     	;# 
  1331  0316                     	;# 
  1332  0317                     	;# 
  1333  0318                     	;# 
  1334  0318                     	;# 
  1335  0319                     	;# 
  1336  031A                     	;# 
  1337  031B                     	;# 
  1338  031C                     	;# 
  1339  031C                     	;# 
  1340  031D                     	;# 
  1341  031E                     	;# 
  1342  031F                     	;# 
  1343  038C                     	;# 
  1344  038D                     	;# 
  1345  038E                     	;# 
  1346  0390                     	;# 
  1347  0391                     	;# 
  1348  0392                     	;# 
  1349  040C                     	;# 
  1350  040D                     	;# 
  1351  040E                     	;# 
  1352  040F                     	;# 
  1353  0410                     	;# 
  1354  0411                     	;# 
  1355  0416                     	;# 
  1356  0416                     	;# 
  1357  0417                     	;# 
  1358  0418                     	;# 
  1359  0418                     	;# 
  1360  0419                     	;# 
  1361  041A                     	;# 
  1362  041A                     	;# 
  1363  041B                     	;# 
  1364  041C                     	;# 
  1365  041C                     	;# 
  1366  041D                     	;# 
  1367  041E                     	;# 
  1368  041F                     	;# 
  1369  048C                     	;# 
  1370  048C                     	;# 
  1371  048D                     	;# 
  1372  048E                     	;# 
  1373  048F                     	;# 
  1374  048F                     	;# 
  1375  0490                     	;# 
  1376  0491                     	;# 
  1377  0492                     	;# 
  1378  0492                     	;# 
  1379  0493                     	;# 
  1380  0494                     	;# 
  1381  0495                     	;# 
  1382  0495                     	;# 
  1383  0496                     	;# 
  1384  0497                     	;# 
  1385  0498                     	;# 
  1386  0499                     	;# 
  1387  049A                     	;# 
  1388  049B                     	;# 
  1389  049C                     	;# 
  1390  049D                     	;# 
  1391  050C                     	;# 
  1392  050C                     	;# 
  1393  050D                     	;# 
  1394  050E                     	;# 
  1395  050F                     	;# 
  1396  050F                     	;# 
  1397  0510                     	;# 
  1398  0511                     	;# 
  1399  0512                     	;# 
  1400  0512                     	;# 
  1401  0513                     	;# 
  1402  0514                     	;# 
  1403  0515                     	;# 
  1404  0515                     	;# 
  1405  0516                     	;# 
  1406  0517                     	;# 
  1407  0518                     	;# 
  1408  0519                     	;# 
  1409  051A                     	;# 
  1410  051B                     	;# 
  1411  051C                     	;# 
  1412  051D                     	;# 
  1413  058C                     	;# 
  1414  058C                     	;# 
  1415  058D                     	;# 
  1416  058E                     	;# 
  1417  058F                     	;# 
  1418  058F                     	;# 
  1419  0590                     	;# 
  1420  0591                     	;# 
  1421  0592                     	;# 
  1422  0593                     	;# 
  1423  060C                     	;# 
  1424  060D                     	;# 
  1425  060E                     	;# 
  1426  060F                     	;# 
  1427  0610                     	;# 
  1428  0611                     	;# 
  1429  0612                     	;# 
  1430  0613                     	;# 
  1431  0614                     	;# 
  1432  0616                     	;# 
  1433  0617                     	;# 
  1434  0618                     	;# 
  1435  0619                     	;# 
  1436  061A                     	;# 
  1437  061B                     	;# 
  1438  061C                     	;# 
  1439  061D                     	;# 
  1440  061E                     	;# 
  1441  068C                     	;# 
  1442  068D                     	;# 
  1443  068E                     	;# 
  1444  068F                     	;# 
  1445  0690                     	;# 
  1446  0691                     	;# 
  1447  0692                     	;# 
  1448  0693                     	;# 
  1449  0694                     	;# 
  1450  070C                     	;# 
  1451  070D                     	;# 
  1452  070E                     	;# 
  1453  070F                     	;# 
  1454  0710                     	;# 
  1455  0711                     	;# 
  1456  0712                     	;# 
  1457  0713                     	;# 
  1458  0714                     	;# 
  1459  0716                     	;# 
  1460  0717                     	;# 
  1461  0718                     	;# 
  1462  0719                     	;# 
  1463  071A                     	;# 
  1464  071B                     	;# 
  1465  071C                     	;# 
  1466  071D                     	;# 
  1467  071E                     	;# 
  1468  0796                     	;# 
  1469  0797                     	;# 
  1470  0798                     	;# 
  1471  0799                     	;# 
  1472  079A                     	;# 
  1473  079B                     	;# 
  1474  080C                     	;# 
  1475  080D                     	;# 
  1476  080E                     	;# 
  1477  080F                     	;# 
  1478  0810                     	;# 
  1479  0811                     	;# 
  1480  0812                     	;# 
  1481  0813                     	;# 
  1482  0814                     	;# 
  1483  081A                     	;# 
  1484  081B                     	;# 
  1485  081C                     	;# 
  1486  081D                     	;# 
  1487  081E                     	;# 
  1488  081F                     	;# 
  1489  088C                     	;# 
  1490  088D                     	;# 
  1491  088E                     	;# 
  1492  088F                     	;# 
  1493  0890                     	;# 
  1494  0891                     	;# 
  1495  0892                     	;# 
  1496  0893                     	;# 
  1497  0895                     	;# 
  1498  0896                     	;# 
  1499  0897                     	;# 
  1500  0898                     	;# 
  1501  0899                     	;# 
  1502  089A                     	;# 
  1503  089B                     	;# 
  1504  090C                     	;# 
  1505  090E                     	;# 
  1506  090F                     	;# 
  1507  091F                     	;# 
  1508  091F                     	;# 
  1509  098F                     	;# 
  1510  098F                     	;# 
  1511  0990                     	;# 
  1512  0991                     	;# 
  1513  0992                     	;# 
  1514  0993                     	;# 
  1515  0994                     	;# 
  1516  0995                     	;# 
  1517  0996                     	;# 
  1518  0997                     	;# 
  1519  0E0F                     	;# 
  1520  0E10                     	;# 
  1521  0E11                     	;# 
  1522  0E12                     	;# 
  1523  0E13                     	;# 
  1524  0E14                     	;# 
  1525  0E15                     	;# 
  1526  0E16                     	;# 
  1527  0E17                     	;# 
  1528  0E18                     	;# 
  1529  0E19                     	;# 
  1530  0E1A                     	;# 
  1531  0E1B                     	;# 
  1532  0E1C                     	;# 
  1533  0E1D                     	;# 
  1534  0E1E                     	;# 
  1535  0E1F                     	;# 
  1536  0E20                     	;# 
  1537  0E21                     	;# 
  1538  0E22                     	;# 
  1539  0E23                     	;# 
  1540  0E24                     	;# 
  1541  0E25                     	;# 
  1542  0E26                     	;# 
  1543  0E27                     	;# 
  1544  0E28                     	;# 
  1545  0E29                     	;# 
  1546  0E2A                     	;# 
  1547  0E2B                     	;# 
  1548  0E2C                     	;# 
  1549  0E2D                     	;# 
  1550  0E2E                     	;# 
  1551  0E2F                     	;# 
  1552  0E30                     	;# 
  1553  0E31                     	;# 
  1554  0E32                     	;# 
  1555  0E33                     	;# 
  1556  0E34                     	;# 
  1557  0E35                     	;# 
  1558  0E36                     	;# 
  1559  0E37                     	;# 
  1560  0E8F                     	;# 
  1561  0E90                     	;# 
  1562  0E91                     	;# 
  1563  0E92                     	;# 
  1564  0E93                     	;# 
  1565  0E94                     	;# 
  1566  0E95                     	;# 
  1567  0E96                     	;# 
  1568  0E97                     	;# 
  1569  0E9C                     	;# 
  1570  0E9D                     	;# 
  1571  0E9E                     	;# 
  1572  0EA1                     	;# 
  1573  0EA2                     	;# 
  1574  0EA3                     	;# 
  1575  0EA4                     	;# 
  1576  0EA5                     	;# 
  1577  0EA9                     	;# 
  1578  0EAA                     	;# 
  1579  0EAB                     	;# 
  1580  0EAC                     	;# 
  1581  0EB1                     	;# 
  1582  0EB2                     	;# 
  1583  0EB3                     	;# 
  1584  0EB8                     	;# 
  1585  0EB9                     	;# 
  1586  0EBA                     	;# 
  1587  0EBB                     	;# 
  1588  0EBC                     	;# 
  1589  0EBD                     	;# 
  1590  0EBE                     	;# 
  1591  0EC3                     	;# 
  1592  0EC5                     	;# 
  1593  0EC6                     	;# 
  1594  0EC7                     	;# 
  1595  0EC8                     	;# 
  1596  0EC9                     	;# 
  1597  0ECA                     	;# 
  1598  0ECB                     	;# 
  1599  0ECC                     	;# 
  1600  0F10                     	;# 
  1601  0F11                     	;# 
  1602  0F12                     	;# 
  1603  0F13                     	;# 
  1604  0F14                     	;# 
  1605  0F15                     	;# 
  1606  0F16                     	;# 
  1607  0F17                     	;# 
  1608  0F18                     	;# 
  1609  0F19                     	;# 
  1610  0F1A                     	;# 
  1611  0F1B                     	;# 
  1612  0F1C                     	;# 
  1613  0F1D                     	;# 
  1614  0F1E                     	;# 
  1615  0F1F                     	;# 
  1616  0F20                     	;# 
  1617  0F21                     	;# 
  1618  0F22                     	;# 
  1619  0F23                     	;# 
  1620  0F24                     	;# 
  1621  0F25                     	;# 
  1622  0F26                     	;# 
  1623  0F27                     	;# 
  1624  0F28                     	;# 
  1625  0F29                     	;# 
  1626  0F2A                     	;# 
  1627  0F2B                     	;# 
  1628  0F2C                     	;# 
  1629  0F2D                     	;# 
  1630  0F2E                     	;# 
  1631  0F2F                     	;# 
  1632  0F30                     	;# 
  1633  0F31                     	;# 
  1634  0F32                     	;# 
  1635  0F38                     	;# 
  1636  0F39                     	;# 
  1637  0F3A                     	;# 
  1638  0F3B                     	;# 
  1639  0F3C                     	;# 
  1640  0F3D                     	;# 
  1641  0F3E                     	;# 
  1642  0F3F                     	;# 
  1643  0F40                     	;# 
  1644  0F41                     	;# 
  1645  0F43                     	;# 
  1646  0F44                     	;# 
  1647  0F45                     	;# 
  1648  0F46                     	;# 
  1649  0F47                     	;# 
  1650  0F48                     	;# 
  1651  0F49                     	;# 
  1652  0F4A                     	;# 
  1653  0F4B                     	;# 
  1654  0F4C                     	;# 
  1655  0F4E                     	;# 
  1656  0F4F                     	;# 
  1657  0F50                     	;# 
  1658  0F51                     	;# 
  1659  0F52                     	;# 
  1660  0F53                     	;# 
  1661  0F54                     	;# 
  1662  0F55                     	;# 
  1663  0F56                     	;# 
  1664  0F57                     	;# 
  1665  0F59                     	;# 
  1666  0F5A                     	;# 
  1667  0F5B                     	;# 
  1668  0F5C                     	;# 
  1669  0F5D                     	;# 
  1670  0F61                     	;# 
  1671  0F62                     	;# 
  1672  0F64                     	;# 
  1673  0F65                     	;# 
  1674  0F66                     	;# 
  1675  0F67                     	;# 
  1676  0F68                     	;# 
  1677  0F69                     	;# 
  1678  0F6A                     	;# 
  1679  0F6B                     	;# 
  1680  0F6C                     	;# 
  1681  0F6D                     	;# 
  1682  0FE4                     	;# 
  1683  0FE5                     	;# 
  1684  0FE6                     	;# 
  1685  0FE7                     	;# 
  1686  0FE8                     	;# 
  1687  0FE9                     	;# 
  1688  0FEA                     	;# 
  1689  0FEB                     	;# 
  1690  0FED                     	;# 
  1691  0FEE                     	;# 
  1692  0FEF                     	;# 
  1693  0000                     	;# 
  1694  0001                     	;# 
  1695  0002                     	;# 
  1696  0003                     	;# 
  1697  0004                     	;# 
  1698  0005                     	;# 
  1699  0006                     	;# 
  1700  0007                     	;# 
  1701  0008                     	;# 
  1702  0009                     	;# 
  1703  000A                     	;# 
  1704  000B                     	;# 
  1705  000C                     	;# 
  1706  000D                     	;# 
  1707  000E                     	;# 
  1708  000F                     	;# 
  1709  0010                     	;# 
  1710  0011                     	;# 
  1711  0012                     	;# 
  1712  0013                     	;# 
  1713  0014                     	;# 
  1714  0015                     	;# 
  1715  0016                     	;# 
  1716  0017                     	;# 
  1717  0018                     	;# 
  1718  0019                     	;# 
  1719  001A                     	;# 
  1720  001C                     	;# 
  1721  001C                     	;# 
  1722  001D                     	;# 
  1723  001D                     	;# 
  1724  001E                     	;# 
  1725  001F                     	;# 
  1726  008C                     	;# 
  1727  008C                     	;# 
  1728  008D                     	;# 
  1729  008E                     	;# 
  1730  008E                     	;# 
  1731  008F                     	;# 
  1732  0090                     	;# 
  1733  0090                     	;# 
  1734  0091                     	;# 
  1735  0093                     	;# 
  1736  0094                     	;# 
  1737  0095                     	;# 
  1738  0096                     	;# 
  1739  0097                     	;# 
  1740  0098                     	;# 
  1741  0099                     	;# 
  1742  009A                     	;# 
  1743  009B                     	;# 
  1744  009C                     	;# 
  1745  009D                     	;# 
  1746  009E                     	;# 
  1747  010C                     	;# 
  1748  010D                     	;# 
  1749  010E                     	;# 
  1750  010E                     	;# 
  1751  010F                     	;# 
  1752  0110                     	;# 
  1753  0110                     	;# 
  1754  0111                     	;# 
  1755  0112                     	;# 
  1756  0112                     	;# 
  1757  0113                     	;# 
  1758  0114                     	;# 
  1759  0114                     	;# 
  1760  0115                     	;# 
  1761  0116                     	;# 
  1762  0116                     	;# 
  1763  0117                     	;# 
  1764  0119                     	;# 
  1765  0119                     	;# 
  1766  0119                     	;# 
  1767  011A                     	;# 
  1768  011A                     	;# 
  1769  011A                     	;# 
  1770  011B                     	;# 
  1771  011B                     	;# 
  1772  011B                     	;# 
  1773  011B                     	;# 
  1774  011B                     	;# 
  1775  011C                     	;# 
  1776  011C                     	;# 
  1777  011C                     	;# 
  1778  011D                     	;# 
  1779  011D                     	;# 
  1780  011D                     	;# 
  1781  011E                     	;# 
  1782  011E                     	;# 
  1783  011E                     	;# 
  1784  011F                     	;# 
  1785  011F                     	;# 
  1786  011F                     	;# 
  1787  011F                     	;# 
  1788  011F                     	;# 
  1789  018C                     	;# 
  1790  018D                     	;# 
  1791  018E                     	;# 
  1792  018F                     	;# 
  1793  0190                     	;# 
  1794  0191                     	;# 
  1795  0192                     	;# 
  1796  0196                     	;# 
  1797  0197                     	;# 
  1798  0198                     	;# 
  1799  0199                     	;# 
  1800  019A                     	;# 
  1801  019B                     	;# 
  1802  019C                     	;# 
  1803  020C                     	;# 
  1804  020C                     	;# 
  1805  020D                     	;# 
  1806  020E                     	;# 
  1807  020F                     	;# 
  1808  020F                     	;# 
  1809  0210                     	;# 
  1810  0210                     	;# 
  1811  0211                     	;# 
  1812  0211                     	;# 
  1813  0212                     	;# 
  1814  0212                     	;# 
  1815  0213                     	;# 
  1816  0214                     	;# 
  1817  0215                     	;# 
  1818  0215                     	;# 
  1819  0216                     	;# 
  1820  0216                     	;# 
  1821  0217                     	;# 
  1822  0217                     	;# 
  1823  0218                     	;# 
  1824  0218                     	;# 
  1825  0219                     	;# 
  1826  021A                     	;# 
  1827  021B                     	;# 
  1828  021B                     	;# 
  1829  021C                     	;# 
  1830  021C                     	;# 
  1831  021D                     	;# 
  1832  021D                     	;# 
  1833  021E                     	;# 
  1834  021F                     	;# 
  1835  028C                     	;# 
  1836  028C                     	;# 
  1837  028D                     	;# 
  1838  028D                     	;# 
  1839  028E                     	;# 
  1840  028F                     	;# 
  1841  0290                     	;# 
  1842  0290                     	;# 
  1843  0291                     	;# 
  1844  0292                     	;# 
  1845  0292                     	;# 
  1846  0293                     	;# 
  1847  0293                     	;# 
  1848  0294                     	;# 
  1849  0295                     	;# 
  1850  0296                     	;# 
  1851  0296                     	;# 
  1852  0297                     	;# 
  1853  0298                     	;# 
  1854  0298                     	;# 
  1855  0299                     	;# 
  1856  0299                     	;# 
  1857  029A                     	;# 
  1858  029B                     	;# 
  1859  029C                     	;# 
  1860  029C                     	;# 
  1861  029D                     	;# 
  1862  030C                     	;# 
  1863  030C                     	;# 
  1864  030D                     	;# 
  1865  030E                     	;# 
  1866  030F                     	;# 
  1867  0310                     	;# 
  1868  0310                     	;# 
  1869  0311                     	;# 
  1870  0312                     	;# 
  1871  0313                     	;# 
  1872  0314                     	;# 
  1873  0314                     	;# 
  1874  0315                     	;# 
  1875  0316                     	;# 
  1876  0317                     	;# 
  1877  0318                     	;# 
  1878  0318                     	;# 
  1879  0319                     	;# 
  1880  031A                     	;# 
  1881  031B                     	;# 
  1882  031C                     	;# 
  1883  031C                     	;# 
  1884  031D                     	;# 
  1885  031E                     	;# 
  1886  031F                     	;# 
  1887  038C                     	;# 
  1888  038D                     	;# 
  1889  038E                     	;# 
  1890  0390                     	;# 
  1891  0391                     	;# 
  1892  0392                     	;# 
  1893  040C                     	;# 
  1894  040D                     	;# 
  1895  040E                     	;# 
  1896  040F                     	;# 
  1897  0410                     	;# 
  1898  0411                     	;# 
  1899  0416                     	;# 
  1900  0416                     	;# 
  1901  0417                     	;# 
  1902  0418                     	;# 
  1903  0418                     	;# 
  1904  0419                     	;# 
  1905  041A                     	;# 
  1906  041A                     	;# 
  1907  041B                     	;# 
  1908  041C                     	;# 
  1909  041C                     	;# 
  1910  041D                     	;# 
  1911  041E                     	;# 
  1912  041F                     	;# 
  1913  048C                     	;# 
  1914  048C                     	;# 
  1915  048D                     	;# 
  1916  048E                     	;# 
  1917  048F                     	;# 
  1918  048F                     	;# 
  1919  0490                     	;# 
  1920  0491                     	;# 
  1921  0492                     	;# 
  1922  0492                     	;# 
  1923  0493                     	;# 
  1924  0494                     	;# 
  1925  0495                     	;# 
  1926  0495                     	;# 
  1927  0496                     	;# 
  1928  0497                     	;# 
  1929  0498                     	;# 
  1930  0499                     	;# 
  1931  049A                     	;# 
  1932  049B                     	;# 
  1933  049C                     	;# 
  1934  049D                     	;# 
  1935  050C                     	;# 
  1936  050C                     	;# 
  1937  050D                     	;# 
  1938  050E                     	;# 
  1939  050F                     	;# 
  1940  050F                     	;# 
  1941  0510                     	;# 
  1942  0511                     	;# 
  1943  0512                     	;# 
  1944  0512                     	;# 
  1945  0513                     	;# 
  1946  0514                     	;# 
  1947  0515                     	;# 
  1948  0515                     	;# 
  1949  0516                     	;# 
  1950  0517                     	;# 
  1951  0518                     	;# 
  1952  0519                     	;# 
  1953  051A                     	;# 
  1954  051B                     	;# 
  1955  051C                     	;# 
  1956  051D                     	;# 
  1957  058C                     	;# 
  1958  058C                     	;# 
  1959  058D                     	;# 
  1960  058E                     	;# 
  1961  058F                     	;# 
  1962  058F                     	;# 
  1963  0590                     	;# 
  1964  0591                     	;# 
  1965  0592                     	;# 
  1966  0593                     	;# 
  1967  060C                     	;# 
  1968  060D                     	;# 
  1969  060E                     	;# 
  1970  060F                     	;# 
  1971  0610                     	;# 
  1972  0611                     	;# 
  1973  0612                     	;# 
  1974  0613                     	;# 
  1975  0614                     	;# 
  1976  0616                     	;# 
  1977  0617                     	;# 
  1978  0618                     	;# 
  1979  0619                     	;# 
  1980  061A                     	;# 
  1981  061B                     	;# 
  1982  061C                     	;# 
  1983  061D                     	;# 
  1984  061E                     	;# 
  1985  068C                     	;# 
  1986  068D                     	;# 
  1987  068E                     	;# 
  1988  068F                     	;# 
  1989  0690                     	;# 
  1990  0691                     	;# 
  1991  0692                     	;# 
  1992  0693                     	;# 
  1993  0694                     	;# 
  1994  070C                     	;# 
  1995  070D                     	;# 
  1996  070E                     	;# 
  1997  070F                     	;# 
  1998  0710                     	;# 
  1999  0711                     	;# 
  2000  0712                     	;# 
  2001  0713                     	;# 
  2002  0714                     	;# 
  2003  0716                     	;# 
  2004  0717                     	;# 
  2005  0718                     	;# 
  2006  0719                     	;# 
  2007  071A                     	;# 
  2008  071B                     	;# 
  2009  071C                     	;# 
  2010  071D                     	;# 
  2011  071E                     	;# 
  2012  0796                     	;# 
  2013  0797                     	;# 
  2014  0798                     	;# 
  2015  0799                     	;# 
  2016  079A                     	;# 
  2017  079B                     	;# 
  2018  080C                     	;# 
  2019  080D                     	;# 
  2020  080E                     	;# 
  2021  080F                     	;# 
  2022  0810                     	;# 
  2023  0811                     	;# 
  2024  0812                     	;# 
  2025  0813                     	;# 
  2026  0814                     	;# 
  2027  081A                     	;# 
  2028  081B                     	;# 
  2029  081C                     	;# 
  2030  081D                     	;# 
  2031  081E                     	;# 
  2032  081F                     	;# 
  2033  088C                     	;# 
  2034  088D                     	;# 
  2035  088E                     	;# 
  2036  088F                     	;# 
  2037  0890                     	;# 
  2038  0891                     	;# 
  2039  0892                     	;# 
  2040  0893                     	;# 
  2041  0895                     	;# 
  2042  0896                     	;# 
  2043  0897                     	;# 
  2044  0898                     	;# 
  2045  0899                     	;# 
  2046  089A                     	;# 
  2047  089B                     	;# 
  2048  090C                     	;# 
  2049  090E                     	;# 
  2050  090F                     	;# 
  2051  091F                     	;# 
  2052  091F                     	;# 
  2053  098F                     	;# 
  2054  098F                     	;# 
  2055  0990                     	;# 
  2056  0991                     	;# 
  2057  0992                     	;# 
  2058  0993                     	;# 
  2059  0994                     	;# 
  2060  0995                     	;# 
  2061  0996                     	;# 
  2062  0997                     	;# 
  2063  0E0F                     	;# 
  2064  0E10                     	;# 
  2065  0E11                     	;# 
  2066  0E12                     	;# 
  2067  0E13                     	;# 
  2068  0E14                     	;# 
  2069  0E15                     	;# 
  2070  0E16                     	;# 
  2071  0E17                     	;# 
  2072  0E18                     	;# 
  2073  0E19                     	;# 
  2074  0E1A                     	;# 
  2075  0E1B                     	;# 
  2076  0E1C                     	;# 
  2077  0E1D                     	;# 
  2078  0E1E                     	;# 
  2079  0E1F                     	;# 
  2080  0E20                     	;# 
  2081  0E21                     	;# 
  2082  0E22                     	;# 
  2083  0E23                     	;# 
  2084  0E24                     	;# 
  2085  0E25                     	;# 
  2086  0E26                     	;# 
  2087  0E27                     	;# 
  2088  0E28                     	;# 
  2089  0E29                     	;# 
  2090  0E2A                     	;# 
  2091  0E2B                     	;# 
  2092  0E2C                     	;# 
  2093  0E2D                     	;# 
  2094  0E2E                     	;# 
  2095  0E2F                     	;# 
  2096  0E30                     	;# 
  2097  0E31                     	;# 
  2098  0E32                     	;# 
  2099  0E33                     	;# 
  2100  0E34                     	;# 
  2101  0E35                     	;# 
  2102  0E36                     	;# 
  2103  0E37                     	;# 
  2104  0E8F                     	;# 
  2105  0E90                     	;# 
  2106  0E91                     	;# 
  2107  0E92                     	;# 
  2108  0E93                     	;# 
  2109  0E94                     	;# 
  2110  0E95                     	;# 
  2111  0E96                     	;# 
  2112  0E97                     	;# 
  2113  0E9C                     	;# 
  2114  0E9D                     	;# 
  2115  0E9E                     	;# 
  2116  0EA1                     	;# 
  2117  0EA2                     	;# 
  2118  0EA3                     	;# 
  2119  0EA4                     	;# 
  2120  0EA5                     	;# 
  2121  0EA9                     	;# 
  2122  0EAA                     	;# 
  2123  0EAB                     	;# 
  2124  0EAC                     	;# 
  2125  0EB1                     	;# 
  2126  0EB2                     	;# 
  2127  0EB3                     	;# 
  2128  0EB8                     	;# 
  2129  0EB9                     	;# 
  2130  0EBA                     	;# 
  2131  0EBB                     	;# 
  2132  0EBC                     	;# 
  2133  0EBD                     	;# 
  2134  0EBE                     	;# 
  2135  0EC3                     	;# 
  2136  0EC5                     	;# 
  2137  0EC6                     	;# 
  2138  0EC7                     	;# 
  2139  0EC8                     	;# 
  2140  0EC9                     	;# 
  2141  0ECA                     	;# 
  2142  0ECB                     	;# 
  2143  0ECC                     	;# 
  2144  0F10                     	;# 
  2145  0F11                     	;# 
  2146  0F12                     	;# 
  2147  0F13                     	;# 
  2148  0F14                     	;# 
  2149  0F15                     	;# 
  2150  0F16                     	;# 
  2151  0F17                     	;# 
  2152  0F18                     	;# 
  2153  0F19                     	;# 
  2154  0F1A                     	;# 
  2155  0F1B                     	;# 
  2156  0F1C                     	;# 
  2157  0F1D                     	;# 
  2158  0F1E                     	;# 
  2159  0F1F                     	;# 
  2160  0F20                     	;# 
  2161  0F21                     	;# 
  2162  0F22                     	;# 
  2163  0F23                     	;# 
  2164  0F24                     	;# 
  2165  0F25                     	;# 
  2166  0F26                     	;# 
  2167  0F27                     	;# 
  2168  0F28                     	;# 
  2169  0F29                     	;# 
  2170  0F2A                     	;# 
  2171  0F2B                     	;# 
  2172  0F2C                     	;# 
  2173  0F2D                     	;# 
  2174  0F2E                     	;# 
  2175  0F2F                     	;# 
  2176  0F30                     	;# 
  2177  0F31                     	;# 
  2178  0F32                     	;# 
  2179  0F38                     	;# 
  2180  0F39                     	;# 
  2181  0F3A                     	;# 
  2182  0F3B                     	;# 
  2183  0F3C                     	;# 
  2184  0F3D                     	;# 
  2185  0F3E                     	;# 
  2186  0F3F                     	;# 
  2187  0F40                     	;# 
  2188  0F41                     	;# 
  2189  0F43                     	;# 
  2190  0F44                     	;# 
  2191  0F45                     	;# 
  2192  0F46                     	;# 
  2193  0F47                     	;# 
  2194  0F48                     	;# 
  2195  0F49                     	;# 
  2196  0F4A                     	;# 
  2197  0F4B                     	;# 
  2198  0F4C                     	;# 
  2199  0F4E                     	;# 
  2200  0F4F                     	;# 
  2201  0F50                     	;# 
  2202  0F51                     	;# 
  2203  0F52                     	;# 
  2204  0F53                     	;# 
  2205  0F54                     	;# 
  2206  0F55                     	;# 
  2207  0F56                     	;# 
  2208  0F57                     	;# 
  2209  0F59                     	;# 
  2210  0F5A                     	;# 
  2211  0F5B                     	;# 
  2212  0F5C                     	;# 
  2213  0F5D                     	;# 
  2214  0F61                     	;# 
  2215  0F62                     	;# 
  2216  0F64                     	;# 
  2217  0F65                     	;# 
  2218  0F66                     	;# 
  2219  0F67                     	;# 
  2220  0F68                     	;# 
  2221  0F69                     	;# 
  2222  0F6A                     	;# 
  2223  0F6B                     	;# 
  2224  0F6C                     	;# 
  2225  0F6D                     	;# 
  2226  0FE4                     	;# 
  2227  0FE5                     	;# 
  2228  0FE6                     	;# 
  2229  0FE7                     	;# 
  2230  0FE8                     	;# 
  2231  0FE9                     	;# 
  2232  0FEA                     	;# 
  2233  0FEB                     	;# 
  2234  0FED                     	;# 
  2235  0FEE                     	;# 
  2236  0FEF                     	;# 
  2237  0000                     	;# 
  2238  0001                     	;# 
  2239  0002                     	;# 
  2240  0003                     	;# 
  2241  0004                     	;# 
  2242  0005                     	;# 
  2243  0006                     	;# 
  2244  0007                     	;# 
  2245  0008                     	;# 
  2246  0009                     	;# 
  2247  000A                     	;# 
  2248  000B                     	;# 
  2249  000C                     	;# 
  2250  000D                     	;# 
  2251  000E                     	;# 
  2252  000F                     	;# 
  2253  0010                     	;# 
  2254  0011                     	;# 
  2255  0012                     	;# 
  2256  0013                     	;# 
  2257  0014                     	;# 
  2258  0015                     	;# 
  2259  0016                     	;# 
  2260  0017                     	;# 
  2261  0018                     	;# 
  2262  0019                     	;# 
  2263  001A                     	;# 
  2264  001C                     	;# 
  2265  001C                     	;# 
  2266  001D                     	;# 
  2267  001D                     	;# 
  2268  001E                     	;# 
  2269  001F                     	;# 
  2270  008C                     	;# 
  2271  008C                     	;# 
  2272  008D                     	;# 
  2273  008E                     	;# 
  2274  008E                     	;# 
  2275  008F                     	;# 
  2276  0090                     	;# 
  2277  0090                     	;# 
  2278  0091                     	;# 
  2279  0093                     	;# 
  2280  0094                     	;# 
  2281  0095                     	;# 
  2282  0096                     	;# 
  2283  0097                     	;# 
  2284  0098                     	;# 
  2285  0099                     	;# 
  2286  009A                     	;# 
  2287  009B                     	;# 
  2288  009C                     	;# 
  2289  009D                     	;# 
  2290  009E                     	;# 
  2291  010C                     	;# 
  2292  010D                     	;# 
  2293  010E                     	;# 
  2294  010E                     	;# 
  2295  010F                     	;# 
  2296  0110                     	;# 
  2297  0110                     	;# 
  2298  0111                     	;# 
  2299  0112                     	;# 
  2300  0112                     	;# 
  2301  0113                     	;# 
  2302  0114                     	;# 
  2303  0114                     	;# 
  2304  0115                     	;# 
  2305  0116                     	;# 
  2306  0116                     	;# 
  2307  0117                     	;# 
  2308  0119                     	;# 
  2309  0119                     	;# 
  2310  0119                     	;# 
  2311  011A                     	;# 
  2312  011A                     	;# 
  2313  011A                     	;# 
  2314  011B                     	;# 
  2315  011B                     	;# 
  2316  011B                     	;# 
  2317  011B                     	;# 
  2318  011B                     	;# 
  2319  011C                     	;# 
  2320  011C                     	;# 
  2321  011C                     	;# 
  2322  011D                     	;# 
  2323  011D                     	;# 
  2324  011D                     	;# 
  2325  011E                     	;# 
  2326  011E                     	;# 
  2327  011E                     	;# 
  2328  011F                     	;# 
  2329  011F                     	;# 
  2330  011F                     	;# 
  2331  011F                     	;# 
  2332  011F                     	;# 
  2333  018C                     	;# 
  2334  018D                     	;# 
  2335  018E                     	;# 
  2336  018F                     	;# 
  2337  0190                     	;# 
  2338  0191                     	;# 
  2339  0192                     	;# 
  2340  0196                     	;# 
  2341  0197                     	;# 
  2342  0198                     	;# 
  2343  0199                     	;# 
  2344  019A                     	;# 
  2345  019B                     	;# 
  2346  019C                     	;# 
  2347  020C                     	;# 
  2348  020C                     	;# 
  2349  020D                     	;# 
  2350  020E                     	;# 
  2351  020F                     	;# 
  2352  020F                     	;# 
  2353  0210                     	;# 
  2354  0210                     	;# 
  2355  0211                     	;# 
  2356  0211                     	;# 
  2357  0212                     	;# 
  2358  0212                     	;# 
  2359  0213                     	;# 
  2360  0214                     	;# 
  2361  0215                     	;# 
  2362  0215                     	;# 
  2363  0216                     	;# 
  2364  0216                     	;# 
  2365  0217                     	;# 
  2366  0217                     	;# 
  2367  0218                     	;# 
  2368  0218                     	;# 
  2369  0219                     	;# 
  2370  021A                     	;# 
  2371  021B                     	;# 
  2372  021B                     	;# 
  2373  021C                     	;# 
  2374  021C                     	;# 
  2375  021D                     	;# 
  2376  021D                     	;# 
  2377  021E                     	;# 
  2378  021F                     	;# 
  2379  028C                     	;# 
  2380  028C                     	;# 
  2381  028D                     	;# 
  2382  028D                     	;# 
  2383  028E                     	;# 
  2384  028F                     	;# 
  2385  0290                     	;# 
  2386  0290                     	;# 
  2387  0291                     	;# 
  2388  0292                     	;# 
  2389  0292                     	;# 
  2390  0293                     	;# 
  2391  0293                     	;# 
  2392  0294                     	;# 
  2393  0295                     	;# 
  2394  0296                     	;# 
  2395  0296                     	;# 
  2396  0297                     	;# 
  2397  0298                     	;# 
  2398  0298                     	;# 
  2399  0299                     	;# 
  2400  0299                     	;# 
  2401  029A                     	;# 
  2402  029B                     	;# 
  2403  029C                     	;# 
  2404  029C                     	;# 
  2405  029D                     	;# 
  2406  030C                     	;# 
  2407  030C                     	;# 
  2408  030D                     	;# 
  2409  030E                     	;# 
  2410  030F                     	;# 
  2411  0310                     	;# 
  2412  0310                     	;# 
  2413  0311                     	;# 
  2414  0312                     	;# 
  2415  0313                     	;# 
  2416  0314                     	;# 
  2417  0314                     	;# 
  2418  0315                     	;# 
  2419  0316                     	;# 
  2420  0317                     	;# 
  2421  0318                     	;# 
  2422  0318                     	;# 
  2423  0319                     	;# 
  2424  031A                     	;# 
  2425  031B                     	;# 
  2426  031C                     	;# 
  2427  031C                     	;# 
  2428  031D                     	;# 
  2429  031E                     	;# 
  2430  031F                     	;# 
  2431  038C                     	;# 
  2432  038D                     	;# 
  2433  038E                     	;# 
  2434  0390                     	;# 
  2435  0391                     	;# 
  2436  0392                     	;# 
  2437  040C                     	;# 
  2438  040D                     	;# 
  2439  040E                     	;# 
  2440  040F                     	;# 
  2441  0410                     	;# 
  2442  0411                     	;# 
  2443  0416                     	;# 
  2444  0416                     	;# 
  2445  0417                     	;# 
  2446  0418                     	;# 
  2447  0418                     	;# 
  2448  0419                     	;# 
  2449  041A                     	;# 
  2450  041A                     	;# 
  2451  041B                     	;# 
  2452  041C                     	;# 
  2453  041C                     	;# 
  2454  041D                     	;# 
  2455  041E                     	;# 
  2456  041F                     	;# 
  2457  048C                     	;# 
  2458  048C                     	;# 
  2459  048D                     	;# 
  2460  048E                     	;# 
  2461  048F                     	;# 
  2462  048F                     	;# 
  2463  0490                     	;# 
  2464  0491                     	;# 
  2465  0492                     	;# 
  2466  0492                     	;# 
  2467  0493                     	;# 
  2468  0494                     	;# 
  2469  0495                     	;# 
  2470  0495                     	;# 
  2471  0496                     	;# 
  2472  0497                     	;# 
  2473  0498                     	;# 
  2474  0499                     	;# 
  2475  049A                     	;# 
  2476  049B                     	;# 
  2477  049C                     	;# 
  2478  049D                     	;# 
  2479  050C                     	;# 
  2480  050C                     	;# 
  2481  050D                     	;# 
  2482  050E                     	;# 
  2483  050F                     	;# 
  2484  050F                     	;# 
  2485  0510                     	;# 
  2486  0511                     	;# 
  2487  0512                     	;# 
  2488  0512                     	;# 
  2489  0513                     	;# 
  2490  0514                     	;# 
  2491  0515                     	;# 
  2492  0515                     	;# 
  2493  0516                     	;# 
  2494  0517                     	;# 
  2495  0518                     	;# 
  2496  0519                     	;# 
  2497  051A                     	;# 
  2498  051B                     	;# 
  2499  051C                     	;# 
  2500  051D                     	;# 
  2501  058C                     	;# 
  2502  058C                     	;# 
  2503  058D                     	;# 
  2504  058E                     	;# 
  2505  058F                     	;# 
  2506  058F                     	;# 
  2507  0590                     	;# 
  2508  0591                     	;# 
  2509  0592                     	;# 
  2510  0593                     	;# 
  2511  060C                     	;# 
  2512  060D                     	;# 
  2513  060E                     	;# 
  2514  060F                     	;# 
  2515  0610                     	;# 
  2516  0611                     	;# 
  2517  0612                     	;# 
  2518  0613                     	;# 
  2519  0614                     	;# 
  2520  0616                     	;# 
  2521  0617                     	;# 
  2522  0618                     	;# 
  2523  0619                     	;# 
  2524  061A                     	;# 
  2525  061B                     	;# 
  2526  061C                     	;# 
  2527  061D                     	;# 
  2528  061E                     	;# 
  2529  068C                     	;# 
  2530  068D                     	;# 
  2531  068E                     	;# 
  2532  068F                     	;# 
  2533  0690                     	;# 
  2534  0691                     	;# 
  2535  0692                     	;# 
  2536  0693                     	;# 
  2537  0694                     	;# 
  2538  070C                     	;# 
  2539  070D                     	;# 
  2540  070E                     	;# 
  2541  070F                     	;# 
  2542  0710                     	;# 
  2543  0711                     	;# 
  2544  0712                     	;# 
  2545  0713                     	;# 
  2546  0714                     	;# 
  2547  0716                     	;# 
  2548  0717                     	;# 
  2549  0718                     	;# 
  2550  0719                     	;# 
  2551  071A                     	;# 
  2552  071B                     	;# 
  2553  071C                     	;# 
  2554  071D                     	;# 
  2555  071E                     	;# 
  2556  0796                     	;# 
  2557  0797                     	;# 
  2558  0798                     	;# 
  2559  0799                     	;# 
  2560  079A                     	;# 
  2561  079B                     	;# 
  2562  080C                     	;# 
  2563  080D                     	;# 
  2564  080E                     	;# 
  2565  080F                     	;# 
  2566  0810                     	;# 
  2567  0811                     	;# 
  2568  0812                     	;# 
  2569  0813                     	;# 
  2570  0814                     	;# 
  2571  081A                     	;# 
  2572  081B                     	;# 
  2573  081C                     	;# 
  2574  081D                     	;# 
  2575  081E                     	;# 
  2576  081F                     	;# 
  2577  088C                     	;# 
  2578  088D                     	;# 
  2579  088E                     	;# 
  2580  088F                     	;# 
  2581  0890                     	;# 
  2582  0891                     	;# 
  2583  0892                     	;# 
  2584  0893                     	;# 
  2585  0895                     	;# 
  2586  0896                     	;# 
  2587  0897                     	;# 
  2588  0898                     	;# 
  2589  0899                     	;# 
  2590  089A                     	;# 
  2591  089B                     	;# 
  2592  090C                     	;# 
  2593  090E                     	;# 
  2594  090F                     	;# 
  2595  091F                     	;# 
  2596  091F                     	;# 
  2597  098F                     	;# 
  2598  098F                     	;# 
  2599  0990                     	;# 
  2600  0991                     	;# 
  2601  0992                     	;# 
  2602  0993                     	;# 
  2603  0994                     	;# 
  2604  0995                     	;# 
  2605  0996                     	;# 
  2606  0997                     	;# 
  2607  0E0F                     	;# 
  2608  0E10                     	;# 
  2609  0E11                     	;# 
  2610  0E12                     	;# 
  2611  0E13                     	;# 
  2612  0E14                     	;# 
  2613  0E15                     	;# 
  2614  0E16                     	;# 
  2615  0E17                     	;# 
  2616  0E18                     	;# 
  2617  0E19                     	;# 
  2618  0E1A                     	;# 
  2619  0E1B                     	;# 
  2620  0E1C                     	;# 
  2621  0E1D                     	;# 
  2622  0E1E                     	;# 
  2623  0E1F                     	;# 
  2624  0E20                     	;# 
  2625  0E21                     	;# 
  2626  0E22                     	;# 
  2627  0E23                     	;# 
  2628  0E24                     	;# 
  2629  0E25                     	;# 
  2630  0E26                     	;# 
  2631  0E27                     	;# 
  2632  0E28                     	;# 
  2633  0E29                     	;# 
  2634  0E2A                     	;# 
  2635  0E2B                     	;# 
  2636  0E2C                     	;# 
  2637  0E2D                     	;# 
  2638  0E2E                     	;# 
  2639  0E2F                     	;# 
  2640  0E30                     	;# 
  2641  0E31                     	;# 
  2642  0E32                     	;# 
  2643  0E33                     	;# 
  2644  0E34                     	;# 
  2645  0E35                     	;# 
  2646  0E36                     	;# 
  2647  0E37                     	;# 
  2648  0E8F                     	;# 
  2649  0E90                     	;# 
  2650  0E91                     	;# 
  2651  0E92                     	;# 
  2652  0E93                     	;# 
  2653  0E94                     	;# 
  2654  0E95                     	;# 
  2655  0E96                     	;# 
  2656  0E97                     	;# 
  2657  0E9C                     	;# 
  2658  0E9D                     	;# 
  2659  0E9E                     	;# 
  2660  0EA1                     	;# 
  2661  0EA2                     	;# 
  2662  0EA3                     	;# 
  2663  0EA4                     	;# 
  2664  0EA5                     	;# 
  2665  0EA9                     	;# 
  2666  0EAA                     	;# 
  2667  0EAB                     	;# 
  2668  0EAC                     	;# 
  2669  0EB1                     	;# 
  2670  0EB2                     	;# 
  2671  0EB3                     	;# 
  2672  0EB8                     	;# 
  2673  0EB9                     	;# 
  2674  0EBA                     	;# 
  2675  0EBB                     	;# 
  2676  0EBC                     	;# 
  2677  0EBD                     	;# 
  2678  0EBE                     	;# 
  2679  0EC3                     	;# 
  2680  0EC5                     	;# 
  2681  0EC6                     	;# 
  2682  0EC7                     	;# 
  2683  0EC8                     	;# 
  2684  0EC9                     	;# 
  2685  0ECA                     	;# 
  2686  0ECB                     	;# 
  2687  0ECC                     	;# 
  2688  0F10                     	;# 
  2689  0F11                     	;# 
  2690  0F12                     	;# 
  2691  0F13                     	;# 
  2692  0F14                     	;# 
  2693  0F15                     	;# 
  2694  0F16                     	;# 
  2695  0F17                     	;# 
  2696  0F18                     	;# 
  2697  0F19                     	;# 
  2698  0F1A                     	;# 
  2699  0F1B                     	;# 
  2700  0F1C                     	;# 
  2701  0F1D                     	;# 
  2702  0F1E                     	;# 
  2703  0F1F                     	;# 
  2704  0F20                     	;# 
  2705  0F21                     	;# 
  2706  0F22                     	;# 
  2707  0F23                     	;# 
  2708  0F24                     	;# 
  2709  0F25                     	;# 
  2710  0F26                     	;# 
  2711  0F27                     	;# 
  2712  0F28                     	;# 
  2713  0F29                     	;# 
  2714  0F2A                     	;# 
  2715  0F2B                     	;# 
  2716  0F2C                     	;# 
  2717  0F2D                     	;# 
  2718  0F2E                     	;# 
  2719  0F2F                     	;# 
  2720  0F30                     	;# 
  2721  0F31                     	;# 
  2722  0F32                     	;# 
  2723  0F38                     	;# 
  2724  0F39                     	;# 
  2725  0F3A                     	;# 
  2726  0F3B                     	;# 
  2727  0F3C                     	;# 
  2728  0F3D                     	;# 
  2729  0F3E                     	;# 
  2730  0F3F                     	;# 
  2731  0F40                     	;# 
  2732  0F41                     	;# 
  2733  0F43                     	;# 
  2734  0F44                     	;# 
  2735  0F45                     	;# 
  2736  0F46                     	;# 
  2737  0F47                     	;# 
  2738  0F48                     	;# 
  2739  0F49                     	;# 
  2740  0F4A                     	;# 
  2741  0F4B                     	;# 
  2742  0F4C                     	;# 
  2743  0F4E                     	;# 
  2744  0F4F                     	;# 
  2745  0F50                     	;# 
  2746  0F51                     	;# 
  2747  0F52                     	;# 
  2748  0F53                     	;# 
  2749  0F54                     	;# 
  2750  0F55                     	;# 
  2751  0F56                     	;# 
  2752  0F57                     	;# 
  2753  0F59                     	;# 
  2754  0F5A                     	;# 
  2755  0F5B                     	;# 
  2756  0F5C                     	;# 
  2757  0F5D                     	;# 
  2758  0F61                     	;# 
  2759  0F62                     	;# 
  2760  0F64                     	;# 
  2761  0F65                     	;# 
  2762  0F66                     	;# 
  2763  0F67                     	;# 
  2764  0F68                     	;# 
  2765  0F69                     	;# 
  2766  0F6A                     	;# 
  2767  0F6B                     	;# 
  2768  0F6C                     	;# 
  2769  0F6D                     	;# 
  2770  0FE4                     	;# 
  2771  0FE5                     	;# 
  2772  0FE6                     	;# 
  2773  0FE7                     	;# 
  2774  0FE8                     	;# 
  2775  0FE9                     	;# 
  2776  0FEA                     	;# 
  2777  0FEB                     	;# 
  2778  0FED                     	;# 
  2779  0FEE                     	;# 
  2780  0FEF                     	;# 
  2781                           
  2782                           	psect	nvCOMMON
  2783  0079                     __pnvCOMMON:	
  2784  0079                     _TMR0_InterruptHandler:	
  2785  0079                     	ds	2
  2786  007B                     _swuartTxBufferRemaining:	
  2787  007B                     	ds	1
  2788                           
  2789                           	psect	nvBANK0
  2790  002A                     __pnvBANK0:	
  2791  002A                     _serialState:	
  2792  002A                     	ds	1
  2793  000B                     _INTCONbits	set	11
  2794  0017                     _LATBbits	set	23
  2795  001E                     _T0CON0bits	set	30
  2796  001E                     _T0CON0	set	30
  2797  001C                     _TMR0L	set	28
  2798  001D                     _TMR0H	set	29
  2799  001F                     _T0CON1	set	31
  2800  0014                     _TRISD	set	20
  2801  0013                     _TRISC	set	19
  2802  0012                     _TRISB	set	18
  2803  0011                     _TRISA	set	17
  2804  0015                     _TRISE	set	21
  2805  0018                     _LATC	set	24
  2806  0017                     _LATB	set	23
  2807  0016                     _LATA	set	22
  2808  0019                     _LATD	set	25
  2809  001A                     _LATE	set	26
  2810  070C                     _PIR0bits	set	1804
  2811  0716                     _PIE0bits	set	1814
  2812  079B                     _PMD5	set	1947
  2813  079A                     _PMD4	set	1946
  2814  0799                     _PMD3	set	1945
  2815  0798                     _PMD2	set	1944
  2816  0797                     _PMD1	set	1943
  2817  0796                     _PMD0	set	1942
  2818  0892                     _OSCTUNE	set	2194
  2819  0893                     _OSCFRQ	set	2195
  2820  0891                     _OSCEN	set	2193
  2821  088F                     _OSCCON3	set	2191
  2822  088D                     _OSCCON1	set	2189
  2823  0F5B                     _ODCOND	set	3931
  2824  0F50                     _ODCONC	set	3920
  2825  0F45                     _ODCONB	set	3909
  2826  0F3A                     _ODCONA	set	3898
  2827  0F66                     _ODCONE	set	3942
  2828  0F4F                     _WPUC	set	3919
  2829  0F39                     _WPUA	set	3897
  2830  0F44                     _WPUB	set	3908
  2831  0F65                     _WPUE	set	3941
  2832  0F5A                     _WPUD	set	3930
  2833  0F38                     _ANSELA	set	3896
  2834  0F64                     _ANSELE	set	3940
  2835  0F43                     _ANSELB	set	3907
  2836  0F4E                     _ANSELC	set	3918
  2837  0F59                     _ANSELD	set	3929
  2838                           
  2839                           ; #config settings
  2840  0000                     
  2841                           	psect	cinit
  2842  0016                     start_initialization:	
  2843  0016                     __initialization:	
  2844                           
  2845                           ; Clear objects allocated to COMMON
  2846  0016  01F0               	clrf	__pbssCOMMON& (0+127)
  2847  0017  01F1               	clrf	(__pbssCOMMON+1)& (0+127)
  2848  0018  01F2               	clrf	(__pbssCOMMON+2)& (0+127)
  2849  0019  01F3               	clrf	(__pbssCOMMON+3)& (0+127)
  2850  001A  01F4               	clrf	(__pbssCOMMON+4)& (0+127)
  2851                           
  2852                           ; Clear objects allocated to BANK0
  2853  001B  0020               	movlb	0	; select bank0
  2854  001C  01A0               	clrf	__pbssBANK0& (0+127)
  2855  001D  01A1               	clrf	(__pbssBANK0+1)& (0+127)
  2856  001E  01A2               	clrf	(__pbssBANK0+2)& (0+127)
  2857  001F  01A3               	clrf	(__pbssBANK0+3)& (0+127)
  2858  0020  01A4               	clrf	(__pbssBANK0+4)& (0+127)
  2859  0021  01A5               	clrf	(__pbssBANK0+5)& (0+127)
  2860  0022  01A6               	clrf	(__pbssBANK0+6)& (0+127)
  2861  0023  01A7               	clrf	(__pbssBANK0+7)& (0+127)
  2862  0024                     end_of_initialization:	
  2863                           ;End of C runtime variable initialization code
  2864                           
  2865  0024                     __end_of__initialization:	
  2866  0024  107E               	bcf	int$flags,0	;clear compiler interrupt flag (level 1)
  2867  0025  0020               	movlb	0
  2868  0026  3180  2828         	ljmp	_main	;jump to C main() function
  2869                           
  2870                           	psect	bssCOMMON
  2871  0070                     __pbssCOMMON:	
  2872  0070                     _serialFlag:	
  2873  0070                     	ds	1
  2874  0071                     _swuartTxData:	
  2875  0071                     	ds	1
  2876  0072                     _swuartTxBitCount:	
  2877  0072                     	ds	1
  2878  0073                     _swuartTxTail:	
  2879  0073                     	ds	1
  2880  0074                     _swuartTxHead:	
  2881  0074                     	ds	1
  2882                           
  2883                           	psect	bssBANK0
  2884  0020                     __pbssBANK0:	
  2885  0020                     _swuartTxBuffer:	
  2886  0020                     	ds	8
  2887                           
  2888                           	psect	cstackCOMMON
  2889  0075                     __pcstackCOMMON:	
  2890  0075                     ?_PMD_Initialize:	
  2891  0075                     ?_PIN_MANAGER_Initialize:	
  2892                           ; 1 bytes @ 0x0
  2893                           
  2894  0075                     ?_OSCILLATOR_Initialize:	
  2895                           ; 1 bytes @ 0x0
  2896                           
  2897  0075                     ?_TMR0_Initialize:	
  2898                           ; 1 bytes @ 0x0
  2899                           
  2900  0075                     ?_TMR0_ISR:	
  2901                           ; 1 bytes @ 0x0
  2902                           
  2903  0075                     ?_TMR0_DefaultInterruptHandler:	
  2904                           ; 1 bytes @ 0x0
  2905                           
  2906  0075                     ??_TMR0_DefaultInterruptHandler:	
  2907                           ; 1 bytes @ 0x0
  2908                           
  2909  0075                     ?_SYSTEM_Initialize:	
  2910                           ; 1 bytes @ 0x0
  2911                           
  2912  0075                     ?_INTERRUPT_InterruptManager:	
  2913                           ; 1 bytes @ 0x0
  2914                           
  2915  0075                     ?_BB_TimerInterruptHandler:	
  2916                           ; 1 bytes @ 0x0
  2917                           
  2918  0075                     ??_BB_TimerInterruptHandler:	
  2919                           ; 1 bytes @ 0x0
  2920                           
  2921  0075                     ?_SWUART_SendBreak:	
  2922                           ; 1 bytes @ 0x0
  2923                           
  2924  0075                     ?_BB_Initialize:	
  2925                           ; 1 bytes @ 0x0
  2926                           
  2927  0075                     ?_BB_Write:	
  2928                           ; 1 bytes @ 0x0
  2929                           
  2930  0075                     ?_main:	
  2931                           ; 1 bytes @ 0x0
  2932                           
  2933                           
  2934                           ; 1 bytes @ 0x0
  2935  0075                     	ds	1
  2936  0076                     ??_TMR0_ISR:	
  2937  0076                     ??_INTERRUPT_InterruptManager:	
  2938                           ; 1 bytes @ 0x1
  2939                           
  2940                           
  2941                           ; 1 bytes @ 0x1
  2942  0076                     	ds	1
  2943  0077                     ??_PMD_Initialize:	
  2944  0077                     ??_PIN_MANAGER_Initialize:	
  2945                           ; 1 bytes @ 0x2
  2946                           
  2947  0077                     ??_OSCILLATOR_Initialize:	
  2948                           ; 1 bytes @ 0x2
  2949                           
  2950  0077                     ?_TMR0_SetInterruptHandler:	
  2951                           ; 1 bytes @ 0x2
  2952                           
  2953  0077                     ??_SWUART_SendBreak:	
  2954                           ; 1 bytes @ 0x2
  2955                           
  2956  0077                     TMR0_SetInterruptHandler@InterruptHandler:	
  2957                           ; 1 bytes @ 0x2
  2958                           
  2959                           
  2960                           ; 2 bytes @ 0x2
  2961  0077                     	ds	1
  2962  0078                     ??_BB_Write:	
  2963                           
  2964                           ; 1 bytes @ 0x3
  2965  0078                     	ds	1
  2966  0079                     ??_TMR0_Initialize:	
  2967  0079                     ??_TMR0_SetInterruptHandler:	
  2968                           ; 1 bytes @ 0x4
  2969                           
  2970  0079                     ??_SYSTEM_Initialize:	
  2971                           ; 1 bytes @ 0x4
  2972                           
  2973                           
  2974                           	psect	cstackBANK0
  2975  0028                     __pcstackBANK0:	
  2976                           ; 1 bytes @ 0x4
  2977                           
  2978  0028                     ??_BB_Initialize:	
  2979  0028                     BB_Write@tx:	
  2980                           ; 1 bytes @ 0x0
  2981                           
  2982                           
  2983                           ; 1 bytes @ 0x0
  2984  0028                     	ds	1
  2985  0029                     ??_main:	
  2986                           
  2987                           ; 1 bytes @ 0x1
  2988  0029                     	ds	1
  2989                           
  2990                           	psect	maintext
  2991  0028                     __pmaintext:	
  2992 ;;
  2993 ;;Main: autosize = 0, tempsize = 1, incstack = 0, save=0
  2994 ;;
  2995 ;; *************** function _main *****************
  2996 ;; Defined at:
  2997 ;;		line 180 in file "main.c"
  2998 ;; Parameters:    Size  Location     Type
  2999 ;;		None
  3000 ;; Auto vars:     Size  Location     Type
  3001 ;;		None
  3002 ;; Return value:  Size  Location     Type
  3003 ;;                  1    wreg      void 
  3004 ;; Registers used:
  3005 ;;		wreg, fsr1l, fsr1h, status,2, status,0, pclath, cstack
  3006 ;; Tracked objects:
  3007 ;;		On entry : B1F/0
  3008 ;;		On exit  : 0/0
  3009 ;;		Unchanged: 0/0
  3010 ;; Data sizes:     COMMON   BANK0   BANK1   BANK2   BANK3   BANK4   BANK5   BANK6   BANK7   BANK8   BANK9  BANK10  BANK1
      +1  BANK12
  3011 ;;      Params:         0       0       0       0       0       0       0       0       0       0       0       0       
      +0       0
  3012 ;;      Locals:         0       0       0       0       0       0       0       0       0       0       0       0       
      +0       0
  3013 ;;      Temps:          0       1       0       0       0       0       0       0       0       0       0       0       
      +0       0
  3014 ;;      Totals:         0       1       0       0       0       0       0       0       0       0       0       0       
      +0       0
  3015 ;;Total ram usage:        1 bytes
  3016 ;; Hardware stack levels required when called:    6
  3017 ;; This function calls:
  3018 ;;		_BB_Initialize
  3019 ;;		_BB_Write
  3020 ;;		_SYSTEM_Initialize
  3021 ;; This function is called by:
  3022 ;;		Startup code after reset
  3023 ;; This function uses a non-reentrant model
  3024 ;;
  3025                           
  3026                           
  3027                           ;psect for function _main
  3028  0028                     _main:	
  3029                           
  3030                           ;main.c: 183: SYSTEM_Initialize();
  3031                           
  3032                           ;incstack = 0
  3033                           ; Regs used in _main: [wreg+fsr1l+fsr1h+status,2+status,0+pclath+cstack]
  3034  0028  3181  2174  3180   	fcall	_SYSTEM_Initialize
  3035                           
  3036                           ;main.c: 189: (INTCONbits.GIE = 1);
  3037  002B  178B               	bsf	11,7	;volatile
  3038                           
  3039                           ;main.c: 192: (INTCONbits.PEIE = 1);
  3040  002C  170B               	bsf	11,6	;volatile
  3041                           
  3042                           ;main.c: 200: BB_Initialize();
  3043  002D  3181  2161  3180   	fcall	_BB_Initialize
  3044  0030                     l1118:	
  3045                           ;main.c: 202: while (1)
  3046                           
  3047                           
  3048                           ;main.c: 203: {
  3049                           ;main.c: 204: BB_Write('M');
  3050  0030  304D               	movlw	77
  3051  0031  3180  20F9  3180   	fcall	_BB_Write
  3052                           
  3053                           ;main.c: 205: _delay((unsigned long)((100)*(4000000/4000.0)));
  3054  0034  3082               	movlw	130
  3055  0035  0020               	movlb	0	; select bank0
  3056  0036  00A9               	movwf	??_main
  3057  0037  30DD               	movlw	221
  3058  0038                     u297:	
  3059  0038  0B89               	decfsz	9,f
  3060  0039  2838               	goto	u297
  3061  003A  0BA9               	decfsz	??_main,f
  3062  003B  2838               	goto	u297
  3063  003C  3200               	nop2
  3064                           
  3065                           ;main.c: 206: BB_Write('I');
  3066  003D  3049               	movlw	73
  3067  003E  3180  20F9  3180   	fcall	_BB_Write
  3068                           
  3069                           ;main.c: 207: _delay((unsigned long)((100)*(4000000/4000.0)));
  3070  0041  3082               	movlw	130
  3071  0042  0020               	movlb	0	; select bank0
  3072  0043  00A9               	movwf	??_main
  3073  0044  30DD               	movlw	221
  3074  0045                     u307:	
  3075  0045  0B89               	decfsz	9,f
  3076  0046  2845               	goto	u307
  3077  0047  0BA9               	decfsz	??_main,f
  3078  0048  2845               	goto	u307
  3079  0049  3200               	nop2
  3080                           
  3081                           ;main.c: 208: BB_Write('N');
  3082  004A  304E               	movlw	78
  3083  004B  3180  20F9  3180   	fcall	_BB_Write
  3084                           
  3085                           ;main.c: 209: _delay((unsigned long)((100)*(4000000/4000.0)));
  3086  004E  3082               	movlw	130
  3087  004F  0020               	movlb	0	; select bank0
  3088  0050  00A9               	movwf	??_main
  3089  0051  30DD               	movlw	221
  3090  0052                     u317:	
  3091  0052  0B89               	decfsz	9,f
  3092  0053  2852               	goto	u317
  3093  0054  0BA9               	decfsz	??_main,f
  3094  0055  2852               	goto	u317
  3095  0056  3200               	nop2
  3096                           
  3097                           ;main.c: 210: BB_Write('S');
  3098  0057  3053               	movlw	83
  3099  0058  3180  20F9  3180   	fcall	_BB_Write
  3100                           
  3101                           ;main.c: 211: _delay((unsigned long)((100)*(4000000/4000.0)));
  3102  005B  3082               	movlw	130
  3103  005C  0020               	movlb	0	; select bank0
  3104  005D  00A9               	movwf	??_main
  3105  005E  30DD               	movlw	221
  3106  005F                     u327:	
  3107  005F  0B89               	decfsz	9,f
  3108  0060  285F               	goto	u327
  3109  0061  0BA9               	decfsz	??_main,f
  3110  0062  285F               	goto	u327
  3111  0063  3200               	nop2
  3112                           
  3113                           ;main.c: 212: BB_Write('A');
  3114  0064  3041               	movlw	65
  3115  0065  3180  20F9  3180   	fcall	_BB_Write
  3116                           
  3117                           ;main.c: 213: _delay((unsigned long)((100)*(4000000/4000.0)));
  3118  0068  3082               	movlw	130
  3119  0069  0020               	movlb	0	; select bank0
  3120  006A  00A9               	movwf	??_main
  3121  006B  30DD               	movlw	221
  3122  006C                     u337:	
  3123  006C  0B89               	decfsz	9,f
  3124  006D  286C               	goto	u337
  3125  006E  0BA9               	decfsz	??_main,f
  3126  006F  286C               	goto	u337
  3127  0070  3200               	nop2
  3128                           
  3129                           ;main.c: 214: BB_Write('S');
  3130  0071  3053               	movlw	83
  3131  0072  3180  20F9  3180   	fcall	_BB_Write
  3132                           
  3133                           ;main.c: 215: _delay((unsigned long)((100)*(4000000/4000.0)));
  3134  0075  3082               	movlw	130
  3135  0076  0020               	movlb	0	; select bank0
  3136  0077  00A9               	movwf	??_main
  3137  0078  30DD               	movlw	221
  3138  0079                     u347:	
  3139  0079  0B89               	decfsz	9,f
  3140  007A  2879               	goto	u347
  3141  007B  0BA9               	decfsz	??_main,f
  3142  007C  2879               	goto	u347
  3143  007D  3200               	nop2
  3144                           
  3145                           ;main.c: 216: BB_Write('I');
  3146  007E  3049               	movlw	73
  3147  007F  3180  20F9  3180   	fcall	_BB_Write
  3148                           
  3149                           ;main.c: 217: _delay((unsigned long)((100)*(4000000/4000.0)));
  3150  0082  3082               	movlw	130
  3151  0083  0020               	movlb	0	; select bank0
  3152  0084  00A9               	movwf	??_main
  3153  0085  30DD               	movlw	221
  3154  0086                     u357:	
  3155  0086  0B89               	decfsz	9,f
  3156  0087  2886               	goto	u357
  3157  0088  0BA9               	decfsz	??_main,f
  3158  0089  2886               	goto	u357
  3159  008A  3200               	nop2
  3160                           
  3161                           ;main.c: 218: BB_Write('\r');
  3162  008B  300D               	movlw	13
  3163  008C  3180  20F9  3180   	fcall	_BB_Write
  3164                           
  3165                           ;main.c: 219: _delay((unsigned long)((100)*(4000000/4000.0)));
  3166  008F  3082               	movlw	130
  3167  0090  0020               	movlb	0	; select bank0
  3168  0091  00A9               	movwf	??_main
  3169  0092  30DD               	movlw	221
  3170  0093                     u367:	
  3171  0093  0B89               	decfsz	9,f
  3172  0094  2893               	goto	u367
  3173  0095  0BA9               	decfsz	??_main,f
  3174  0096  2893               	goto	u367
  3175  0097  3200               	nop2
  3176                           
  3177                           ;main.c: 220: BB_Write('\n');
  3178  0098  300A               	movlw	10
  3179  0099  3180  20F9  3180   	fcall	_BB_Write
  3180  009C  2830               	goto	l1118
  3181  009D                     __end_of_main:	
  3182                           
  3183                           	psect	text1
  3184  0174                     __ptext1:	
  3185 ;; *************** function _SYSTEM_Initialize *****************
  3186 ;; Defined at:
  3187 ;;		line 50 in file "mcc_generated_files/mcc.c"
  3188 ;; Parameters:    Size  Location     Type
  3189 ;;		None
  3190 ;; Auto vars:     Size  Location     Type
  3191 ;;		None
  3192 ;; Return value:  Size  Location     Type
  3193 ;;                  1    wreg      void 
  3194 ;; Registers used:
  3195 ;;		wreg, status,2, status,0, pclath, cstack
  3196 ;; Tracked objects:
  3197 ;;		On entry : 0/0
  3198 ;;		On exit  : 0/0
  3199 ;;		Unchanged: 0/0
  3200 ;; Data sizes:     COMMON   BANK0   BANK1   BANK2   BANK3   BANK4   BANK5   BANK6   BANK7   BANK8   BANK9  BANK10  BANK1
      +1  BANK12
  3201 ;;      Params:         0       0       0       0       0       0       0       0       0       0       0       0       
      +0       0
  3202 ;;      Locals:         0       0       0       0       0       0       0       0       0       0       0       0       
      +0       0
  3203 ;;      Temps:          0       0       0       0       0       0       0       0       0       0       0       0       
      +0       0
  3204 ;;      Totals:         0       0       0       0       0       0       0       0       0       0       0       0       
      +0       0
  3205 ;;Total ram usage:        0 bytes
  3206 ;; Hardware stack levels used:    1
  3207 ;; Hardware stack levels required when called:    5
  3208 ;; This function calls:
  3209 ;;		_OSCILLATOR_Initialize
  3210 ;;		_PIN_MANAGER_Initialize
  3211 ;;		_PMD_Initialize
  3212 ;;		_TMR0_Initialize
  3213 ;; This function is called by:
  3214 ;;		_main
  3215 ;; This function uses a non-reentrant model
  3216 ;;
  3217                           
  3218                           
  3219                           ;psect for function _SYSTEM_Initialize
  3220  0174                     _SYSTEM_Initialize:	
  3221                           
  3222                           ;mcc.c: 52: PMD_Initialize();
  3223                           
  3224                           ;incstack = 0
  3225                           ; Regs used in _SYSTEM_Initialize: [wreg+status,2+status,0+pclath+cstack]
  3226  0174  3181  2195  3181   	fcall	_PMD_Initialize
  3227                           
  3228                           ;mcc.c: 53: PIN_MANAGER_Initialize();
  3229  0177  3181  2128  3181   	fcall	_PIN_MANAGER_Initialize
  3230                           
  3231                           ;mcc.c: 54: OSCILLATOR_Initialize();
  3232  017A  3181  218C  3181   	fcall	_OSCILLATOR_Initialize
  3233                           
  3234                           ;mcc.c: 55: TMR0_Initialize();
  3235  017D  3181  214E         	fcall	_TMR0_Initialize
  3236  017F  0008               	return
  3237  0180                     __end_of_SYSTEM_Initialize:	
  3238                           
  3239                           	psect	text2
  3240  014E                     __ptext2:	
  3241 ;; *************** function _TMR0_Initialize *****************
  3242 ;; Defined at:
  3243 ;;		line 61 in file "mcc_generated_files/tmr0.c"
  3244 ;; Parameters:    Size  Location     Type
  3245 ;;		None
  3246 ;; Auto vars:     Size  Location     Type
  3247 ;;		None
  3248 ;; Return value:  Size  Location     Type
  3249 ;;                  1    wreg      void 
  3250 ;; Registers used:
  3251 ;;		wreg, status,2, status,0, pclath, cstack
  3252 ;; Tracked objects:
  3253 ;;		On entry : 0/0
  3254 ;;		On exit  : 0/0
  3255 ;;		Unchanged: 0/0
  3256 ;; Data sizes:     COMMON   BANK0   BANK1   BANK2   BANK3   BANK4   BANK5   BANK6   BANK7   BANK8   BANK9  BANK10  BANK1
      +1  BANK12
  3257 ;;      Params:         0       0       0       0       0       0       0       0       0       0       0       0       
      +0       0
  3258 ;;      Locals:         0       0       0       0       0       0       0       0       0       0       0       0       
      +0       0
  3259 ;;      Temps:          0       0       0       0       0       0       0       0       0       0       0       0       
      +0       0
  3260 ;;      Totals:         0       0       0       0       0       0       0       0       0       0       0       0       
      +0       0
  3261 ;;Total ram usage:        0 bytes
  3262 ;; Hardware stack levels used:    1
  3263 ;; Hardware stack levels required when called:    4
  3264 ;; This function calls:
  3265 ;;		_TMR0_SetInterruptHandler
  3266 ;; This function is called by:
  3267 ;;		_SYSTEM_Initialize
  3268 ;; This function uses a non-reentrant model
  3269 ;;
  3270                           
  3271                           
  3272                           ;psect for function _TMR0_Initialize
  3273  014E                     _TMR0_Initialize:	
  3274                           
  3275                           ;tmr0.c: 66: T0CON1 = 0x40;
  3276                           
  3277                           ;incstack = 0
  3278                           ; Regs used in _TMR0_Initialize: [wreg+status,2+status,0+pclath+cstack]
  3279  014E  3040               	movlw	64
  3280  014F  0020               	movlb	0	; select bank0
  3281  0150  009F               	movwf	31	;volatile
  3282                           
  3283                           ;tmr0.c: 69: TMR0H = 0x67;
  3284  0151  3067               	movlw	103
  3285  0152  009D               	movwf	29	;volatile
  3286                           
  3287                           ;tmr0.c: 72: TMR0L = 0x00;
  3288  0153  019C               	clrf	28	;volatile
  3289                           
  3290                           ;tmr0.c: 75: PIR0bits.TMR0IF = 0;
  3291  0154  002E               	movlb	14	; select bank14
  3292  0155  128C               	bcf	12,5	;volatile
  3293                           
  3294                           ;tmr0.c: 78: PIE0bits.TMR0IE = 1;
  3295  0156  1696               	bsf	22,5	;volatile
  3296                           
  3297                           ;tmr0.c: 81: TMR0_SetInterruptHandler(TMR0_DefaultInterruptHandler);
  3298  0157  30A9               	movlw	low _TMR0_DefaultInterruptHandler
  3299  0158  00F7               	movwf	TMR0_SetInterruptHandler@InterruptHandler
  3300  0159  3001               	movlw	high _TMR0_DefaultInterruptHandler
  3301  015A  00F8               	movwf	TMR0_SetInterruptHandler@InterruptHandler+1
  3302  015B  3181  21A4         	fcall	_TMR0_SetInterruptHandler
  3303                           
  3304                           ;tmr0.c: 84: T0CON0 = 0x80;
  3305  015D  3080               	movlw	128
  3306  015E  0020               	movlb	0	; select bank0
  3307  015F  009E               	movwf	30	;volatile
  3308  0160  0008               	return
  3309  0161                     __end_of_TMR0_Initialize:	
  3310                           
  3311                           	psect	text3
  3312  0195                     __ptext3:	
  3313 ;; *************** function _PMD_Initialize *****************
  3314 ;; Defined at:
  3315 ;;		line 72 in file "mcc_generated_files/mcc.c"
  3316 ;; Parameters:    Size  Location     Type
  3317 ;;		None
  3318 ;; Auto vars:     Size  Location     Type
  3319 ;;		None
  3320 ;; Return value:  Size  Location     Type
  3321 ;;                  1    wreg      void 
  3322 ;; Registers used:
  3323 ;;		status,2
  3324 ;; Tracked objects:
  3325 ;;		On entry : 0/0
  3326 ;;		On exit  : 0/0
  3327 ;;		Unchanged: 0/0
  3328 ;; Data sizes:     COMMON   BANK0   BANK1   BANK2   BANK3   BANK4   BANK5   BANK6   BANK7   BANK8   BANK9  BANK10  BANK1
      +1  BANK12
  3329 ;;      Params:         0       0       0       0       0       0       0       0       0       0       0       0       
      +0       0
  3330 ;;      Locals:         0       0       0       0       0       0       0       0       0       0       0       0       
      +0       0
  3331 ;;      Temps:          0       0       0       0       0       0       0       0       0       0       0       0       
      +0       0
  3332 ;;      Totals:         0       0       0       0       0       0       0       0       0       0       0       0       
      +0       0
  3333 ;;Total ram usage:        0 bytes
  3334 ;; Hardware stack levels used:    1
  3335 ;; Hardware stack levels required when called:    3
  3336 ;; This function calls:
  3337 ;;		Nothing
  3338 ;; This function is called by:
  3339 ;;		_SYSTEM_Initialize
  3340 ;; This function uses a non-reentrant model
  3341 ;;
  3342                           
  3343                           
  3344                           ;psect for function _PMD_Initialize
  3345  0195                     _PMD_Initialize:	
  3346                           
  3347                           ;mcc.c: 75: PMD0 = 0x00;
  3348                           
  3349                           ;incstack = 0
  3350                           ; Regs used in _PMD_Initialize: [status,2]
  3351  0195  002F               	movlb	15	; select bank15
  3352  0196  0196               	clrf	22	;volatile
  3353                           
  3354                           ;mcc.c: 77: PMD1 = 0x00;
  3355  0197  0197               	clrf	23	;volatile
  3356                           
  3357                           ;mcc.c: 79: PMD2 = 0x00;
  3358  0198  0198               	clrf	24	;volatile
  3359                           
  3360                           ;mcc.c: 81: PMD3 = 0x00;
  3361  0199  0199               	clrf	25	;volatile
  3362                           
  3363                           ;mcc.c: 83: PMD4 = 0x00;
  3364  019A  019A               	clrf	26	;volatile
  3365                           
  3366                           ;mcc.c: 85: PMD5 = 0x00;
  3367  019B  019B               	clrf	27	;volatile
  3368  019C  0008               	return
  3369  019D                     __end_of_PMD_Initialize:	
  3370                           
  3371                           	psect	text4
  3372  0128                     __ptext4:	
  3373 ;; *************** function _PIN_MANAGER_Initialize *****************
  3374 ;; Defined at:
  3375 ;;		line 57 in file "mcc_generated_files/pin_manager.c"
  3376 ;; Parameters:    Size  Location     Type
  3377 ;;		None
  3378 ;; Auto vars:     Size  Location     Type
  3379 ;;		None
  3380 ;; Return value:  Size  Location     Type
  3381 ;;                  1    wreg      void 
  3382 ;; Registers used:
  3383 ;;		wreg, status,2
  3384 ;; Tracked objects:
  3385 ;;		On entry : 0/0
  3386 ;;		On exit  : 0/0
  3387 ;;		Unchanged: 0/0
  3388 ;; Data sizes:     COMMON   BANK0   BANK1   BANK2   BANK3   BANK4   BANK5   BANK6   BANK7   BANK8   BANK9  BANK10  BANK1
      +1  BANK12
  3389 ;;      Params:         0       0       0       0       0       0       0       0       0       0       0       0       
      +0       0
  3390 ;;      Locals:         0       0       0       0       0       0       0       0       0       0       0       0       
      +0       0
  3391 ;;      Temps:          0       0       0       0       0       0       0       0       0       0       0       0       
      +0       0
  3392 ;;      Totals:         0       0       0       0       0       0       0       0       0       0       0       0       
      +0       0
  3393 ;;Total ram usage:        0 bytes
  3394 ;; Hardware stack levels used:    1
  3395 ;; Hardware stack levels required when called:    3
  3396 ;; This function calls:
  3397 ;;		Nothing
  3398 ;; This function is called by:
  3399 ;;		_SYSTEM_Initialize
  3400 ;; This function uses a non-reentrant model
  3401 ;;
  3402                           
  3403                           
  3404                           ;psect for function _PIN_MANAGER_Initialize
  3405  0128                     _PIN_MANAGER_Initialize:	
  3406                           
  3407                           ;pin_manager.c: 62: LATE = 0x00;
  3408                           
  3409                           ;incstack = 0
  3410                           ; Regs used in _PIN_MANAGER_Initialize: [wreg+status,2]
  3411  0128  0020               	movlb	0	; select bank0
  3412  0129  019A               	clrf	26	;volatile
  3413                           
  3414                           ;pin_manager.c: 63: LATD = 0x00;
  3415  012A  0199               	clrf	25	;volatile
  3416                           
  3417                           ;pin_manager.c: 64: LATA = 0x00;
  3418  012B  0196               	clrf	22	;volatile
  3419                           
  3420                           ;pin_manager.c: 65: LATB = 0x00;
  3421  012C  0197               	clrf	23	;volatile
  3422                           
  3423                           ;pin_manager.c: 66: LATC = 0x00;
  3424  012D  0198               	clrf	24	;volatile
  3425                           
  3426                           ;pin_manager.c: 71: TRISE = 0x07;
  3427  012E  3007               	movlw	7
  3428  012F  0095               	movwf	21	;volatile
  3429                           
  3430                           ;pin_manager.c: 72: TRISA = 0xEF;
  3431  0130  30EF               	movlw	239
  3432  0131  0091               	movwf	17	;volatile
  3433                           
  3434                           ;pin_manager.c: 73: TRISB = 0xFE;
  3435  0132  30FE               	movlw	254
  3436  0133  0092               	movwf	18	;volatile
  3437                           
  3438                           ;pin_manager.c: 74: TRISC = 0xFF;
  3439  0134  30FF               	movlw	255
  3440  0135  0093               	movwf	19	;volatile
  3441                           
  3442                           ;pin_manager.c: 75: TRISD = 0xFF;
  3443  0136  30FF               	movlw	255
  3444  0137  0094               	movwf	20	;volatile
  3445                           
  3446                           ;pin_manager.c: 80: ANSELD = 0xFF;
  3447  0138  30FF               	movlw	255
  3448  0139  003E               	movlb	30	; select bank30
  3449  013A  00D9               	movwf	89	;volatile
  3450                           
  3451                           ;pin_manager.c: 81: ANSELC = 0xFF;
  3452  013B  30FF               	movlw	255
  3453  013C  00CE               	movwf	78	;volatile
  3454                           
  3455                           ;pin_manager.c: 82: ANSELB = 0xFE;
  3456  013D  30FE               	movlw	254
  3457  013E  00C3               	movwf	67	;volatile
  3458                           
  3459                           ;pin_manager.c: 83: ANSELE = 0x07;
  3460  013F  3007               	movlw	7
  3461  0140  00E4               	movwf	100	;volatile
  3462                           
  3463                           ;pin_manager.c: 84: ANSELA = 0xEF;
  3464  0141  30EF               	movlw	239
  3465  0142  00B8               	movwf	56	;volatile
  3466                           
  3467                           ;pin_manager.c: 89: WPUD = 0x00;
  3468  0143  01DA               	clrf	90	;volatile
  3469                           
  3470                           ;pin_manager.c: 90: WPUE = 0x00;
  3471  0144  01E5               	clrf	101	;volatile
  3472                           
  3473                           ;pin_manager.c: 91: WPUB = 0x00;
  3474  0145  01C4               	clrf	68	;volatile
  3475                           
  3476                           ;pin_manager.c: 92: WPUA = 0x00;
  3477  0146  01B9               	clrf	57	;volatile
  3478                           
  3479                           ;pin_manager.c: 93: WPUC = 0x00;
  3480  0147  01CF               	clrf	79	;volatile
  3481                           
  3482                           ;pin_manager.c: 98: ODCONE = 0x00;
  3483  0148  01E6               	clrf	102	;volatile
  3484                           
  3485                           ;pin_manager.c: 99: ODCONA = 0x00;
  3486  0149  01BA               	clrf	58	;volatile
  3487                           
  3488                           ;pin_manager.c: 100: ODCONB = 0x00;
  3489  014A  01C5               	clrf	69	;volatile
  3490                           
  3491                           ;pin_manager.c: 101: ODCONC = 0x00;
  3492  014B  01D0               	clrf	80	;volatile
  3493                           
  3494                           ;pin_manager.c: 102: ODCOND = 0x00;
  3495  014C  01DB               	clrf	91	;volatile
  3496  014D  0008               	return
  3497  014E                     __end_of_PIN_MANAGER_Initialize:	
  3498                           
  3499                           	psect	text5
  3500  018C                     __ptext5:	
  3501 ;; *************** function _OSCILLATOR_Initialize *****************
  3502 ;; Defined at:
  3503 ;;		line 58 in file "mcc_generated_files/mcc.c"
  3504 ;; Parameters:    Size  Location     Type
  3505 ;;		None
  3506 ;; Auto vars:     Size  Location     Type
  3507 ;;		None
  3508 ;; Return value:  Size  Location     Type
  3509 ;;                  1    wreg      void 
  3510 ;; Registers used:
  3511 ;;		wreg, status,2
  3512 ;; Tracked objects:
  3513 ;;		On entry : 0/0
  3514 ;;		On exit  : 0/0
  3515 ;;		Unchanged: 0/0
  3516 ;; Data sizes:     COMMON   BANK0   BANK1   BANK2   BANK3   BANK4   BANK5   BANK6   BANK7   BANK8   BANK9  BANK10  BANK1
      +1  BANK12
  3517 ;;      Params:         0       0       0       0       0       0       0       0       0       0       0       0       
      +0       0
  3518 ;;      Locals:         0       0       0       0       0       0       0       0       0       0       0       0       
      +0       0
  3519 ;;      Temps:          0       0       0       0       0       0       0       0       0       0       0       0       
      +0       0
  3520 ;;      Totals:         0       0       0       0       0       0       0       0       0       0       0       0       
      +0       0
  3521 ;;Total ram usage:        0 bytes
  3522 ;; Hardware stack levels used:    1
  3523 ;; Hardware stack levels required when called:    3
  3524 ;; This function calls:
  3525 ;;		Nothing
  3526 ;; This function is called by:
  3527 ;;		_SYSTEM_Initialize
  3528 ;; This function uses a non-reentrant model
  3529 ;;
  3530                           
  3531                           
  3532                           ;psect for function _OSCILLATOR_Initialize
  3533  018C                     _OSCILLATOR_Initialize:	
  3534                           
  3535                           ;mcc.c: 61: OSCCON1 = 0x62;
  3536                           
  3537                           ;incstack = 0
  3538                           ; Regs used in _OSCILLATOR_Initialize: [wreg+status,2]
  3539  018C  3062               	movlw	98
  3540  018D  0031               	movlb	17	; select bank17
  3541  018E  008D               	movwf	13	;volatile
  3542                           
  3543                           ;mcc.c: 63: OSCCON3 = 0x00;
  3544  018F  018F               	clrf	15	;volatile
  3545                           
  3546                           ;mcc.c: 65: OSCEN = 0x00;
  3547  0190  0191               	clrf	17	;volatile
  3548                           
  3549                           ;mcc.c: 67: OSCFRQ = 0x05;
  3550  0191  3005               	movlw	5
  3551  0192  0093               	movwf	19	;volatile
  3552                           
  3553                           ;mcc.c: 69: OSCTUNE = 0x00;
  3554  0193  0192               	clrf	18	;volatile
  3555  0194  0008               	return
  3556  0195                     __end_of_OSCILLATOR_Initialize:	
  3557                           
  3558                           	psect	text6
  3559  00F9                     __ptext6:	
  3560 ;; *************** function _BB_Write *****************
  3561 ;; Defined at:
  3562 ;;		line 155 in file "main.c"
  3563 ;; Parameters:    Size  Location     Type
  3564 ;;  tx              1    wreg     unsigned char 
  3565 ;; Auto vars:     Size  Location     Type
  3566 ;;  tx              1    0[BANK0 ] unsigned char 
  3567 ;; Return value:  Size  Location     Type
  3568 ;;                  1    wreg      void 
  3569 ;; Registers used:
  3570 ;;		wreg, fsr1l, fsr1h, status,2, status,0, pclath, cstack
  3571 ;; Tracked objects:
  3572 ;;		On entry : 0/0
  3573 ;;		On exit  : 0/0
  3574 ;;		Unchanged: 0/0
  3575 ;; Data sizes:     COMMON   BANK0   BANK1   BANK2   BANK3   BANK4   BANK5   BANK6   BANK7   BANK8   BANK9  BANK10  BANK1
      +1  BANK12
  3576 ;;      Params:         0       0       0       0       0       0       0       0       0       0       0       0       
      +0       0
  3577 ;;      Locals:         0       1       0       0       0       0       0       0       0       0       0       0       
      +0       0
  3578 ;;      Temps:          1       0       0       0       0       0       0       0       0       0       0       0       
      +0       0
  3579 ;;      Totals:         1       1       0       0       0       0       0       0       0       0       0       0       
      +0       0
  3580 ;;Total ram usage:        2 bytes
  3581 ;; Hardware stack levels used:    1
  3582 ;; Hardware stack levels required when called:    4
  3583 ;; This function calls:
  3584 ;;		_SWUART_SendBreak
  3585 ;; This function is called by:
  3586 ;;		_main
  3587 ;; This function uses a non-reentrant model
  3588 ;;
  3589                           
  3590                           
  3591                           ;psect for function _BB_Write
  3592  00F9                     _BB_Write:	
  3593                           
  3594                           ;incstack = 0
  3595                           ; Regs used in _BB_Write: [wreg+fsr1l+fsr1h+status,2+status,0+pclath+cstack]
  3596                           ;BB_Write@tx stored from wreg
  3597  00F9  0020               	movlb	0	; select bank0
  3598  00FA  00A8               	movwf	BB_Write@tx
  3599  00FB                     l1088:	
  3600                           ;main.c: 156: while(0 == swuartTxBufferRemaining){
  3601                           
  3602  00FB  087B               	movf	_swuartTxBufferRemaining,w	;volatile
  3603  00FC  1903               	btfsc	3,2
  3604  00FD  28FB               	goto	l1088
  3605                           
  3606                           ;main.c: 157: }
  3607                           ;main.c: 159: if(serialFlag.SW_TRMT) {
  3608  00FE  1C70               	btfss	_serialFlag,0
  3609  00FF  2914               	goto	l1102
  3610                           
  3611                           ;main.c: 160: if (serialFlag.SW_SENDB) {
  3612  0100  1DF0               	btfss	_serialFlag,3
  3613  0101  2906               	goto	l1094
  3614                           
  3615                           ;main.c: 161: SWUART_SendBreak();
  3616  0102  3181  219D  3180   	fcall	_SWUART_SendBreak
  3617                           
  3618                           ;main.c: 162: }
  3619  0105  290F               	goto	l1096
  3620  0106                     l1094:	
  3621                           
  3622                           ;main.c: 163: else {
  3623                           ;main.c: 164: swuartTxData = tx;
  3624  0106  0020               	movlb	0	; select bank0
  3625  0107  0828               	movf	BB_Write@tx,w
  3626  0108  00F8               	movwf	??_BB_Write
  3627  0109  0878               	movf	??_BB_Write,w
  3628  010A  00F1               	movwf	_swuartTxData
  3629                           
  3630                           ;main.c: 165: serialState = SERIAL_SEND_BYTE;
  3631  010B  3001               	movlw	1
  3632  010C  00F8               	movwf	??_BB_Write
  3633  010D  0878               	movf	??_BB_Write,w
  3634  010E  00AA               	movwf	_serialState	;volatile
  3635  010F                     l1096:	
  3636                           
  3637                           ;main.c: 166: }
  3638                           ;main.c: 167: serialFlag.SW_TRMT = 0;
  3639  010F  1070               	bcf	_serialFlag,0
  3640                           
  3641                           ;main.c: 168: LATBbits.LATB0 = 0;
  3642  0110  0020               	movlb	0	; select bank0
  3643  0111  1017               	bcf	23,0	;volatile
  3644                           
  3645                           ;main.c: 169: swuartTxBitCount = 0;
  3646  0112  01F2               	clrf	_swuartTxBitCount
  3647                           
  3648                           ;main.c: 170: }
  3649  0113  2925               	goto	l1110
  3650  0114                     l1102:	
  3651                           
  3652                           ;main.c: 171: else {
  3653                           ;main.c: 172: swuartTxBuffer[swuartTxHead++] = tx;
  3654  0114  0020               	movlb	0	; select bank0
  3655  0115  0828               	movf	BB_Write@tx,w
  3656  0116  00F8               	movwf	??_BB_Write
  3657  0117  0874               	movf	_swuartTxHead,w
  3658  0118  3E20               	addlw	(low (_swuartTxBuffer| 0))& (0+255)
  3659  0119  0086               	movwf	6
  3660  011A  0187               	clrf	7
  3661  011B  0878               	movf	??_BB_Write,w
  3662  011C  0081               	movwf	1
  3663  011D  3001               	movlw	1
  3664  011E  00F8               	movwf	??_BB_Write
  3665  011F  0878               	movf	??_BB_Write,w
  3666  0120  07F4               	addwf	_swuartTxHead,f
  3667                           
  3668                           ;main.c: 173: if(sizeof(swuartTxBuffer) <= swuartTxHead){
  3669  0121  3008               	movlw	8
  3670  0122  0274               	subwf	_swuartTxHead,w
  3671  0123  1803               	btfsc	3,0
  3672                           
  3673                           ;main.c: 174: swuartTxHead = 0;
  3674  0124  01F4               	clrf	_swuartTxHead
  3675  0125                     l1110:	
  3676                           
  3677                           ;main.c: 175: }
  3678                           ;main.c: 176: }
  3679                           ;main.c: 177: swuartTxBufferRemaining--;
  3680  0125  3001               	movlw	1
  3681  0126  02FB               	subwf	_swuartTxBufferRemaining,f	;volatile
  3682  0127  0008               	return
  3683  0128                     __end_of_BB_Write:	
  3684                           
  3685                           	psect	text7
  3686  019D                     __ptext7:	
  3687 ;; *************** function _SWUART_SendBreak *****************
  3688 ;; Defined at:
  3689 ;;		line 138 in file "main.c"
  3690 ;; Parameters:    Size  Location     Type
  3691 ;;		None
  3692 ;; Auto vars:     Size  Location     Type
  3693 ;;		None
  3694 ;; Return value:  Size  Location     Type
  3695 ;;                  1    wreg      void 
  3696 ;; Registers used:
  3697 ;;		wreg
  3698 ;; Tracked objects:
  3699 ;;		On entry : 0/0
  3700 ;;		On exit  : 0/0
  3701 ;;		Unchanged: 0/0
  3702 ;; Data sizes:     COMMON   BANK0   BANK1   BANK2   BANK3   BANK4   BANK5   BANK6   BANK7   BANK8   BANK9  BANK10  BANK1
      +1  BANK12
  3703 ;;      Params:         0       0       0       0       0       0       0       0       0       0       0       0       
      +0       0
  3704 ;;      Locals:         0       0       0       0       0       0       0       0       0       0       0       0       
      +0       0
  3705 ;;      Temps:          1       0       0       0       0       0       0       0       0       0       0       0       
      +0       0
  3706 ;;      Totals:         1       0       0       0       0       0       0       0       0       0       0       0       
      +0       0
  3707 ;;Total ram usage:        1 bytes
  3708 ;; Hardware stack levels used:    1
  3709 ;; Hardware stack levels required when called:    3
  3710 ;; This function calls:
  3711 ;;		Nothing
  3712 ;; This function is called by:
  3713 ;;		_BB_Write
  3714 ;; This function uses a non-reentrant model
  3715 ;;
  3716                           
  3717                           
  3718                           ;psect for function _SWUART_SendBreak
  3719  019D                     _SWUART_SendBreak:	
  3720                           
  3721                           ;main.c: 139: serialState = SERIAL_SEND_BREAK;
  3722                           
  3723                           ;incstack = 0
  3724                           ; Regs used in _SWUART_SendBreak: [wreg]
  3725  019D  3003               	movlw	3
  3726  019E  00F7               	movwf	??_SWUART_SendBreak
  3727  019F  0877               	movf	??_SWUART_SendBreak,w
  3728  01A0  0020               	movlb	0	; select bank0
  3729  01A1  00AA               	movwf	_serialState	;volatile
  3730                           
  3731                           ;main.c: 140: serialFlag.SW_SENDB = 0;
  3732  01A2  11F0               	bcf	_serialFlag,3
  3733  01A3  0008               	return
  3734  01A4                     __end_of_SWUART_SendBreak:	
  3735                           
  3736                           	psect	text8
  3737  0161                     __ptext8:	
  3738 ;; *************** function _BB_Initialize *****************
  3739 ;; Defined at:
  3740 ;;		line 143 in file "main.c"
  3741 ;; Parameters:    Size  Location     Type
  3742 ;;		None
  3743 ;; Auto vars:     Size  Location     Type
  3744 ;;		None
  3745 ;; Return value:  Size  Location     Type
  3746 ;;                  1    wreg      void 
  3747 ;; Registers used:
  3748 ;;		wreg, status,2, status,0, pclath, cstack
  3749 ;; Tracked objects:
  3750 ;;		On entry : 0/0
  3751 ;;		On exit  : 0/0
  3752 ;;		Unchanged: 0/0
  3753 ;; Data sizes:     COMMON   BANK0   BANK1   BANK2   BANK3   BANK4   BANK5   BANK6   BANK7   BANK8   BANK9  BANK10  BANK1
      +1  BANK12
  3754 ;;      Params:         0       0       0       0       0       0       0       0       0       0       0       0       
      +0       0
  3755 ;;      Locals:         0       0       0       0       0       0       0       0       0       0       0       0       
      +0       0
  3756 ;;      Temps:          0       1       0       0       0       0       0       0       0       0       0       0       
      +0       0
  3757 ;;      Totals:         0       1       0       0       0       0       0       0       0       0       0       0       
      +0       0
  3758 ;;Total ram usage:        1 bytes
  3759 ;; Hardware stack levels used:    1
  3760 ;; Hardware stack levels required when called:    4
  3761 ;; This function calls:
  3762 ;;		_TMR0_SetInterruptHandler
  3763 ;; This function is called by:
  3764 ;;		_main
  3765 ;; This function uses a non-reentrant model
  3766 ;;
  3767                           
  3768                           
  3769                           ;psect for function _BB_Initialize
  3770  0161                     _BB_Initialize:	
  3771                           
  3772                           ;main.c: 144: TMR0_SetInterruptHandler(BB_TimerInterruptHandler);
  3773                           
  3774                           ;incstack = 0
  3775                           ; Regs used in _BB_Initialize: [wreg+status,2+status,0+pclath+cstack]
  3776  0161  309D               	movlw	low _BB_TimerInterruptHandler
  3777  0162  00F7               	movwf	TMR0_SetInterruptHandler@InterruptHandler
  3778  0163  3000               	movlw	high _BB_TimerInterruptHandler
  3779  0164  00F8               	movwf	TMR0_SetInterruptHandler@InterruptHandler+1
  3780  0165  3181  21A4         	fcall	_TMR0_SetInterruptHandler
  3781                           
  3782                           ;main.c: 146: serialState = SERIAL_IDLE;
  3783  0167  3008               	movlw	8
  3784  0168  0020               	movlb	0	; select bank0
  3785  0169  00A8               	movwf	??_BB_Initialize
  3786  016A  0828               	movf	??_BB_Initialize,w
  3787  016B  00AA               	movwf	_serialState	;volatile
  3788                           
  3789                           ;main.c: 147: serialFlag.SERIAL_FLAGS = 0x00;
  3790  016C  01F0               	clrf	_serialFlag
  3791                           
  3792                           ;main.c: 148: serialFlag.SW_TRMT = 1;
  3793  016D  1470               	bsf	_serialFlag,0
  3794                           
  3795                           ;main.c: 150: LATBbits.LATB0 = 1;
  3796  016E  1417               	bsf	23,0	;volatile
  3797                           
  3798                           ;main.c: 152: swuartTxBufferRemaining = sizeof(swuartTxBuffer);
  3799  016F  3008               	movlw	8
  3800  0170  00A8               	movwf	??_BB_Initialize
  3801  0171  0828               	movf	??_BB_Initialize,w
  3802  0172  00FB               	movwf	_swuartTxBufferRemaining	;volatile
  3803  0173  0008               	return
  3804  0174                     __end_of_BB_Initialize:	
  3805                           
  3806                           	psect	text9
  3807  01A4                     __ptext9:	
  3808 ;; *************** function _TMR0_SetInterruptHandler *****************
  3809 ;; Defined at:
  3810 ;;		line 134 in file "mcc_generated_files/tmr0.c"
  3811 ;; Parameters:    Size  Location     Type
  3812 ;;  InterruptHan    2    2[COMMON] PTR FTN()void 
  3813 ;;		 -> BB_TimerInterruptHandler(1), TMR0_DefaultInterruptHandler(1), 
  3814 ;; Auto vars:     Size  Location     Type
  3815 ;;		None
  3816 ;; Return value:  Size  Location     Type
  3817 ;;                  1    wreg      void 
  3818 ;; Registers used:
  3819 ;;		wreg
  3820 ;; Tracked objects:
  3821 ;;		On entry : 0/0
  3822 ;;		On exit  : 0/0
  3823 ;;		Unchanged: 0/0
  3824 ;; Data sizes:     COMMON   BANK0   BANK1   BANK2   BANK3   BANK4   BANK5   BANK6   BANK7   BANK8   BANK9  BANK10  BANK1
      +1  BANK12
  3825 ;;      Params:         2       0       0       0       0       0       0       0       0       0       0       0       
      +0       0
  3826 ;;      Locals:         0       0       0       0       0       0       0       0       0       0       0       0       
      +0       0
  3827 ;;      Temps:          0       0       0       0       0       0       0       0       0       0       0       0       
      +0       0
  3828 ;;      Totals:         2       0       0       0       0       0       0       0       0       0       0       0       
      +0       0
  3829 ;;Total ram usage:        2 bytes
  3830 ;; Hardware stack levels used:    1
  3831 ;; Hardware stack levels required when called:    3
  3832 ;; This function calls:
  3833 ;;		Nothing
  3834 ;; This function is called by:
  3835 ;;		_TMR0_Initialize
  3836 ;;		_BB_Initialize
  3837 ;; This function uses a non-reentrant model
  3838 ;;
  3839                           
  3840                           
  3841                           ;psect for function _TMR0_SetInterruptHandler
  3842  01A4                     _TMR0_SetInterruptHandler:	
  3843                           
  3844                           ;tmr0.c: 135: TMR0_InterruptHandler = InterruptHandler;
  3845                           
  3846                           ;incstack = 0
  3847                           ; Regs used in _TMR0_SetInterruptHandler: [wreg]
  3848  01A4  0878               	movf	TMR0_SetInterruptHandler@InterruptHandler+1,w
  3849  01A5  00FA               	movwf	_TMR0_InterruptHandler+1
  3850  01A6  0877               	movf	TMR0_SetInterruptHandler@InterruptHandler,w
  3851  01A7  00F9               	movwf	_TMR0_InterruptHandler
  3852  01A8  0008               	return
  3853  01A9                     __end_of_TMR0_SetInterruptHandler:	
  3854                           
  3855                           	psect	intentry
  3856  0004                     __pintentry:	
  3857 ;; *************** function _INTERRUPT_InterruptManager *****************
  3858 ;; Defined at:
  3859 ;;		line 52 in file "mcc_generated_files/interrupt_manager.c"
  3860 ;; Parameters:    Size  Location     Type
  3861 ;;		None
  3862 ;; Auto vars:     Size  Location     Type
  3863 ;;		None
  3864 ;; Return value:  Size  Location     Type
  3865 ;;                  1    wreg      void 
  3866 ;; Registers used:
  3867 ;;		wreg, fsr0l, fsr0h, fsr1l, fsr1h, status,2, status,0, pclath, cstack
  3868 ;; Tracked objects:
  3869 ;;		On entry : 0/0
  3870 ;;		On exit  : 0/0
  3871 ;;		Unchanged: 0/0
  3872 ;; Data sizes:     COMMON   BANK0   BANK1   BANK2   BANK3   BANK4   BANK5   BANK6   BANK7   BANK8   BANK9  BANK10  BANK1
      +1  BANK12
  3873 ;;      Params:         0       0       0       0       0       0       0       0       0       0       0       0       
      +0       0
  3874 ;;      Locals:         0       0       0       0       0       0       0       0       0       0       0       0       
      +0       0
  3875 ;;      Temps:          1       0       0       0       0       0       0       0       0       0       0       0       
      +0       0
  3876 ;;      Totals:         1       0       0       0       0       0       0       0       0       0       0       0       
      +0       0
  3877 ;;Total ram usage:        1 bytes
  3878 ;; Hardware stack levels used:    1
  3879 ;; Hardware stack levels required when called:    2
  3880 ;; This function calls:
  3881 ;;		_TMR0_ISR
  3882 ;; This function is called by:
  3883 ;;		Interrupt level 1
  3884 ;; This function uses a non-reentrant model
  3885 ;;
  3886                           
  3887  0004                     _INTERRUPT_InterruptManager:	
  3888                           
  3889                           ;incstack = 0
  3890  0004  147E               	bsf	126,0	;set compiler interrupt flag (level 1)
  3891                           
  3892                           ; Regs used in _INTERRUPT_InterruptManager: [wreg-fsr1h+status,2+status,0+pclath+cstack]
  3893  0005  3180               	pagesel	$
  3894  0006  0020               	movlb	0	; select bank0
  3895  0007  087F               	movf	127,w
  3896  0008  00F6               	movwf	??_INTERRUPT_InterruptManager
  3897                           
  3898                           ;interrupt_manager.c: 55: if(PIE0bits.TMR0IE == 1 && PIR0bits.TMR0IF == 1)
  3899  0009  002E               	movlb	14	; select bank14
  3900  000A  1A96               	btfsc	22,5	;volatile
  3901  000B  1E8C               	btfss	12,5	;volatile
  3902  000C  280F               	goto	i1l108
  3903                           
  3904                           ;interrupt_manager.c: 56: {
  3905                           ;interrupt_manager.c: 57: TMR0_ISR();
  3906  000D  3181  2180         	fcall	_TMR0_ISR
  3907  000F                     i1l108:	
  3908                           ;interrupt_manager.c: 59: else
  3909                           ;interrupt_manager.c: 60: {
  3910                           
  3911                           ;interrupt_manager.c: 58: }
  3912                           
  3913  000F  0876               	movf	??_INTERRUPT_InterruptManager,w
  3914  0010  0020               	movlb	0	; select bank0
  3915  0011  00FF               	movwf	127
  3916  0012  107E               	bcf	126,0	;clear compiler interrupt flag (level 1)
  3917  0013  0009               	retfie
  3918  0014                     __end_of_INTERRUPT_InterruptManager:	
  3919                           
  3920                           	psect	text11
  3921  0180                     __ptext11:	
  3922 ;; *************** function _TMR0_ISR *****************
  3923 ;; Defined at:
  3924 ;;		line 121 in file "mcc_generated_files/tmr0.c"
  3925 ;; Parameters:    Size  Location     Type
  3926 ;;		None
  3927 ;; Auto vars:     Size  Location     Type
  3928 ;;		None
  3929 ;; Return value:  Size  Location     Type
  3930 ;;                  1    wreg      void 
  3931 ;; Registers used:
  3932 ;;		wreg, fsr0l, fsr0h, fsr1l, fsr1h, status,2, status,0, pclath, cstack
  3933 ;; Tracked objects:
  3934 ;;		On entry : 0/0
  3935 ;;		On exit  : 0/0
  3936 ;;		Unchanged: 0/0
  3937 ;; Data sizes:     COMMON   BANK0   BANK1   BANK2   BANK3   BANK4   BANK5   BANK6   BANK7   BANK8   BANK9  BANK10  BANK1
      +1  BANK12
  3938 ;;      Params:         0       0       0       0       0       0       0       0       0       0       0       0       
      +0       0
  3939 ;;      Locals:         0       0       0       0       0       0       0       0       0       0       0       0       
      +0       0
  3940 ;;      Temps:          0       0       0       0       0       0       0       0       0       0       0       0       
      +0       0
  3941 ;;      Totals:         0       0       0       0       0       0       0       0       0       0       0       0       
      +0       0
  3942 ;;Total ram usage:        0 bytes
  3943 ;; Hardware stack levels used:    1
  3944 ;; Hardware stack levels required when called:    1
  3945 ;; This function calls:
  3946 ;;		Absolute function
  3947 ;;		_BB_TimerInterruptHandler
  3948 ;;		_TMR0_DefaultInterruptHandler
  3949 ;; This function is called by:
  3950 ;;		_INTERRUPT_InterruptManager
  3951 ;; This function uses a non-reentrant model
  3952 ;;
  3953                           
  3954                           
  3955                           ;psect for function _TMR0_ISR
  3956  0180                     _TMR0_ISR:	
  3957                           
  3958                           ;tmr0.c: 124: PIR0bits.TMR0IF = 0;
  3959                           
  3960                           ;incstack = 0
  3961                           ; Regs used in _TMR0_ISR: [wreg-fsr1h+status,2+status,0+pclath+cstack]
  3962  0180  002E               	movlb	14	; select bank14
  3963  0181  128C               	bcf	12,5	;volatile
  3964                           
  3965                           ;tmr0.c: 125: if(TMR0_InterruptHandler)
  3966  0182  0879               	movf	_TMR0_InterruptHandler,w
  3967  0183  047A               	iorwf	_TMR0_InterruptHandler+1,w
  3968  0184  1903               	btfsc	3,2
  3969  0185  0008               	return
  3970                           
  3971                           ;tmr0.c: 126: {
  3972                           ;tmr0.c: 127: TMR0_InterruptHandler();
  3973  0186  087A               	movf	_TMR0_InterruptHandler+1,w
  3974  0187  008A               	movwf	10
  3975  0188  0879               	movf	_TMR0_InterruptHandler,w
  3976  0189  000A               	callw
  3977  018A  3181               	pagesel	$
  3978  018B  0008               	return
  3979  018C                     __end_of_TMR0_ISR:	
  3980                           
  3981                           	psect	text12
  3982  009D                     __ptext12:	
  3983 ;; *************** function _BB_TimerInterruptHandler *****************
  3984 ;; Defined at:
  3985 ;;		line 87 in file "main.c"
  3986 ;; Parameters:    Size  Location     Type
  3987 ;;		None
  3988 ;; Auto vars:     Size  Location     Type
  3989 ;;		None
  3990 ;; Return value:  Size  Location     Type
  3991 ;;                  1    wreg      void 
  3992 ;; Registers used:
  3993 ;;		wreg, fsr0l, fsr0h, fsr1l, fsr1h, status,2, status,0
  3994 ;; Tracked objects:
  3995 ;;		On entry : 0/0
  3996 ;;		On exit  : 0/0
  3997 ;;		Unchanged: 0/0
  3998 ;; Data sizes:     COMMON   BANK0   BANK1   BANK2   BANK3   BANK4   BANK5   BANK6   BANK7   BANK8   BANK9  BANK10  BANK1
      +1  BANK12
  3999 ;;      Params:         0       0       0       0       0       0       0       0       0       0       0       0       
      +0       0
  4000 ;;      Locals:         0       0       0       0       0       0       0       0       0       0       0       0       
      +0       0
  4001 ;;      Temps:          1       0       0       0       0       0       0       0       0       0       0       0       
      +0       0
  4002 ;;      Totals:         1       0       0       0       0       0       0       0       0       0       0       0       
      +0       0
  4003 ;;Total ram usage:        1 bytes
  4004 ;; Hardware stack levels used:    1
  4005 ;; This function calls:
  4006 ;;		Nothing
  4007 ;; This function is called by:
  4008 ;;		_BB_Initialize
  4009 ;;		_TMR0_ISR
  4010 ;; This function uses a non-reentrant model
  4011 ;;
  4012                           
  4013                           
  4014                           ;psect for function _BB_TimerInterruptHandler
  4015  009D                     _BB_TimerInterruptHandler:	
  4016                           
  4017                           ;main.c: 88: switch(serialState){
  4018                           
  4019                           ;incstack = 0
  4020                           ; Regs used in _BB_TimerInterruptHandler: [wreg-fsr1h+status,2+status,0]
  4021  009D  28E6               	goto	i1l966
  4022  009E                     i1l186:	
  4023                           ;main.c: 89: case SERIAL_SEND_START_BIT:
  4024                           
  4025                           
  4026                           ;main.c: 90: LATBbits.LATB0 = 0;
  4027  009E  1017               	bcf	23,0	;volatile
  4028                           
  4029                           ;main.c: 91: serialState = SERIAL_SEND_BYTE;
  4030  009F  3001               	movlw	1
  4031  00A0  00F5               	movwf	??_BB_TimerInterruptHandler
  4032  00A1  0875               	movf	??_BB_TimerInterruptHandler,w
  4033  00A2  00AA               	movwf	_serialState	;volatile
  4034                           
  4035                           ;main.c: 92: swuartTxBitCount = 0;
  4036  00A3  01F2               	clrf	_swuartTxBitCount
  4037                           
  4038                           ;main.c: 93: break;
  4039  00A4  0008               	return
  4040  00A5                     i1l932:	
  4041                           ;main.c: 94: case SERIAL_SEND_BYTE:
  4042                           
  4043                           
  4044                           ;main.c: 95: if(swuartTxBitCount < 8){
  4045  00A5  3008               	movlw	8
  4046  00A6  0272               	subwf	_swuartTxBitCount,w
  4047  00A7  1803               	skipnc
  4048  00A8  28B5               	goto	i1l189
  4049                           
  4050                           ;main.c: 96: if(swuartTxData & 0x01){
  4051  00A9  1C71               	btfss	_swuartTxData,0
  4052  00AA  28AD               	goto	i1l190
  4053                           
  4054                           ;main.c: 97: LATBbits.LATB0 = 1;
  4055  00AB  1417               	bsf	23,0	;volatile
  4056                           
  4057                           ;main.c: 98: }
  4058  00AC  28AE               	goto	i1l938
  4059  00AD                     i1l190:	
  4060                           
  4061                           ;main.c: 99: else{
  4062                           ;main.c: 100: LATBbits.LATB0 = 0;
  4063  00AD  1017               	bcf	23,0	;volatile
  4064  00AE                     i1l938:	
  4065                           
  4066                           ;main.c: 101: }
  4067                           ;main.c: 102: swuartTxData >>= 1;
  4068  00AE  1003               	clrc
  4069  00AF  0CF1               	rrf	_swuartTxData,f
  4070                           
  4071                           ;main.c: 103: swuartTxBitCount++;
  4072  00B0  3001               	movlw	1
  4073  00B1  00F5               	movwf	??_BB_TimerInterruptHandler
  4074  00B2  0875               	movf	??_BB_TimerInterruptHandler,w
  4075  00B3  07F2               	addwf	_swuartTxBitCount,f
  4076                           
  4077                           ;main.c: 104: }
  4078  00B4  0008               	return
  4079  00B5                     i1l189:	
  4080                           
  4081                           ;main.c: 105: else{
  4082                           ;main.c: 106: LATBbits.LATB0 = 1;
  4083  00B5  1417               	bsf	23,0	;volatile
  4084                           
  4085                           ;main.c: 107: serialState = SERIAL_SEND_STOP_BIT;
  4086  00B6  3002               	movlw	2
  4087  00B7  00F5               	movwf	??_BB_TimerInterruptHandler
  4088  00B8  0875               	movf	??_BB_TimerInterruptHandler,w
  4089  00B9  00AA               	movwf	_serialState	;volatile
  4090                           
  4091                           ;main.c: 108: }
  4092                           ;main.c: 109: break;
  4093  00BA  0008               	return
  4094  00BB                     i1l944:	
  4095                           ;main.c: 110: case SERIAL_SEND_STOP_BIT:
  4096                           
  4097                           
  4098                           ;main.c: 111: if(sizeof(swuartTxBuffer)> swuartTxBufferRemaining){
  4099  00BB  3008               	movlw	8
  4100  00BC  027B               	subwf	_swuartTxBufferRemaining,w	;volatile
  4101  00BD  1803               	skipnc
  4102  00BE  28D5               	goto	i1l194
  4103                           
  4104                           ;main.c: 112: swuartTxData = swuartTxBuffer[swuartTxTail++];
  4105  00BF  0873               	movf	_swuartTxTail,w
  4106  00C0  3E20               	addlw	(low (_swuartTxBuffer| 0))& (0+255)
  4107  00C1  0086               	movwf	6
  4108  00C2  0187               	clrf	7
  4109  00C3  0801               	movf	1,w
  4110  00C4  00F5               	movwf	??_BB_TimerInterruptHandler
  4111  00C5  0875               	movf	??_BB_TimerInterruptHandler,w
  4112  00C6  00F1               	movwf	_swuartTxData
  4113  00C7  3001               	movlw	1
  4114  00C8  00F5               	movwf	??_BB_TimerInterruptHandler
  4115  00C9  0875               	movf	??_BB_TimerInterruptHandler,w
  4116  00CA  07F3               	addwf	_swuartTxTail,f
  4117                           
  4118                           ;main.c: 113: if(sizeof(swuartTxBuffer)<= swuartTxTail){
  4119  00CB  3008               	movlw	8
  4120  00CC  0273               	subwf	_swuartTxTail,w
  4121  00CD  1803               	btfsc	3,0
  4122                           
  4123                           ;main.c: 114: swuartTxTail = 0;
  4124  00CE  01F3               	clrf	_swuartTxTail
  4125                           
  4126                           ;main.c: 115: }
  4127                           ;main.c: 116: swuartTxBufferRemaining++;
  4128  00CF  3001               	movlw	1
  4129  00D0  00F5               	movwf	??_BB_TimerInterruptHandler
  4130  00D1  0875               	movf	??_BB_TimerInterruptHandler,w
  4131  00D2  07FB               	addwf	_swuartTxBufferRemaining,f	;volatile
  4132                           
  4133                           ;main.c: 117: serialState = SERIAL_SEND_START_BIT;
  4134  00D3  01AA               	clrf	_serialState	;volatile
  4135                           
  4136                           ;main.c: 118: }
  4137  00D4  0008               	return
  4138  00D5                     i1l194:	
  4139                           
  4140                           ;main.c: 119: else{
  4141                           ;main.c: 120: serialFlag.SW_TRMT = 1;
  4142  00D5  1470               	bsf	_serialFlag,0
  4143                           
  4144                           ;main.c: 121: }
  4145                           ;main.c: 122: break;
  4146  00D6  0008               	return
  4147  00D7                     i1l958:	
  4148                           ;main.c: 123: case SERIAL_SEND_BREAK:
  4149                           
  4150                           
  4151                           ;main.c: 124: if(swuartTxBitCount < 10){
  4152  00D7  300A               	movlw	10
  4153  00D8  0272               	subwf	_swuartTxBitCount,w
  4154  00D9  1803               	skipnc
  4155  00DA  28E0               	goto	i1l198
  4156                           
  4157                           ;main.c: 125: swuartTxBitCount++;
  4158  00DB  3001               	movlw	1
  4159  00DC  00F5               	movwf	??_BB_TimerInterruptHandler
  4160  00DD  0875               	movf	??_BB_TimerInterruptHandler,w
  4161  00DE  07F2               	addwf	_swuartTxBitCount,f
  4162                           
  4163                           ;main.c: 126: }
  4164  00DF  0008               	return
  4165  00E0                     i1l198:	
  4166                           
  4167                           ;main.c: 127: else{
  4168                           ;main.c: 128: LATBbits.LATB0 = 1;
  4169  00E0  1417               	bsf	23,0	;volatile
  4170                           
  4171                           ;main.c: 129: serialState = SERIAL_SEND_STOP_BIT;
  4172  00E1  3002               	movlw	2
  4173  00E2  00F5               	movwf	??_BB_TimerInterruptHandler
  4174  00E3  0875               	movf	??_BB_TimerInterruptHandler,w
  4175  00E4  00AA               	movwf	_serialState	;volatile
  4176                           
  4177                           ;main.c: 134: }
  4178                           
  4179                           ;main.c: 133: break;
  4180                           
  4181                           ;main.c: 132: case SERIAL_IDLE:
  4182                           
  4183                           ;main.c: 130: }
  4184                           ;main.c: 131: break;
  4185  00E5  0008               	return
  4186  00E6                     i1l966:	
  4187  00E6  0020               	movlb	0	; select bank0
  4188  00E7  082A               	movf	_serialState,w	;volatile
  4189                           
  4190                           ; Switch size 1, requested type "space"
  4191                           ; Number of cases is 5, Range of values is 0 to 8
  4192                           ; switch strategies available:
  4193                           ; Name         Instructions Cycles
  4194                           ; simple_byte           16     9 (average)
  4195                           ; direct_byte           24     6 (fixed)
  4196                           ; jumptable            260     6 (fixed)
  4197                           ;	Chosen strategy is simple_byte
  4198  00E8  3A00               	xorlw	0	; case 0
  4199  00E9  1903               	skipnz
  4200  00EA  289E               	goto	i1l186
  4201  00EB  3A01               	xorlw	1	; case 1
  4202  00EC  1903               	skipnz
  4203  00ED  28A5               	goto	i1l932
  4204  00EE  3A03               	xorlw	3	; case 2
  4205  00EF  1903               	skipnz
  4206  00F0  28BB               	goto	i1l944
  4207  00F1  3A01               	xorlw	1	; case 3
  4208  00F2  1903               	skipnz
  4209  00F3  28D7               	goto	i1l958
  4210  00F4  3A0B               	xorlw	11	; case 8
  4211  00F5  1903               	skipnz
  4212  00F6  28F8               	goto	i1l201
  4213  00F7  28F8               	goto	i1l201
  4214  00F8                     i1l201:	
  4215  00F8  0008               	return
  4216  00F9                     __end_of_BB_TimerInterruptHandler:	
  4217                           
  4218                           	psect	text13
  4219  01A9                     __ptext13:	
  4220 ;; *************** function _TMR0_DefaultInterruptHandler *****************
  4221 ;; Defined at:
  4222 ;;		line 138 in file "mcc_generated_files/tmr0.c"
  4223 ;; Parameters:    Size  Location     Type
  4224 ;;		None
  4225 ;; Auto vars:     Size  Location     Type
  4226 ;;		None
  4227 ;; Return value:  Size  Location     Type
  4228 ;;                  1    wreg      void 
  4229 ;; Registers used:
  4230 ;;		None
  4231 ;; Tracked objects:
  4232 ;;		On entry : 0/0
  4233 ;;		On exit  : 0/0
  4234 ;;		Unchanged: 0/0
  4235 ;; Data sizes:     COMMON   BANK0   BANK1   BANK2   BANK3   BANK4   BANK5   BANK6   BANK7   BANK8   BANK9  BANK10  BANK1
      +1  BANK12
  4236 ;;      Params:         0       0       0       0       0       0       0       0       0       0       0       0       
      +0       0
  4237 ;;      Locals:         0       0       0       0       0       0       0       0       0       0       0       0       
      +0       0
  4238 ;;      Temps:          0       0       0       0       0       0       0       0       0       0       0       0       
      +0       0
  4239 ;;      Totals:         0       0       0       0       0       0       0       0       0       0       0       0       
      +0       0
  4240 ;;Total ram usage:        0 bytes
  4241 ;; Hardware stack levels used:    1
  4242 ;; This function calls:
  4243 ;;		Nothing
  4244 ;; This function is called by:
  4245 ;;		_TMR0_Initialize
  4246 ;;		_TMR0_ISR
  4247 ;; This function uses a non-reentrant model
  4248 ;;
  4249                           
  4250                           
  4251                           ;psect for function _TMR0_DefaultInterruptHandler
  4252  01A9                     _TMR0_DefaultInterruptHandler:	
  4253                           
  4254                           ;incstack = 0
  4255                           ; Regs used in _TMR0_DefaultInterruptHandler: []
  4256  01A9  0008               	return
  4257  01AA                     __end_of_TMR0_DefaultInterruptHandler:	
  4258  007E                     btemp	set	126	;btemp
  4259  007E                     int$flags	set	126
  4260  007E                     wtemp0	set	126


Data Sizes:
    Strings     0
    Constant    0
    Data        0
    BSS         13
    Persistent  4
    Stack       0

Auto Spaces:
    Space          Size  Autos    Used
    COMMON           14      4      12
    BANK0            80      2      11
    BANK1            80      0       0
    BANK2            80      0       0
    BANK3            80      0       0
    BANK4            80      0       0
    BANK5            80      0       0
    BANK6            80      0       0
    BANK7            80      0       0
    BANK8            80      0       0
    BANK9            80      0       0
    BANK10           80      0       0
    BANK11           80      0       0
    BANK12           48      0       0

Pointer List with Targets:

    TMR0_SetInterruptHandler@InterruptHandler	PTR FTN()void  size(2) Largest target is 1
		 -> BB_TimerInterruptHandler(), TMR0_DefaultInterruptHandler(), 

    TMR0_InterruptHandler	PTR FTN()void  size(2) Largest target is 1
		 -> BB_TimerInterruptHandler(), Absolute function(), TMR0_DefaultInterruptHandler(), 


Critical Paths under _main in COMMON

    _main->_BB_Write
    _TMR0_Initialize->_TMR0_SetInterruptHandler
    _BB_Write->_SWUART_SendBreak
    _BB_Initialize->_TMR0_SetInterruptHandler

Critical Paths under _INTERRUPT_InterruptManager in COMMON

    _TMR0_ISR->_BB_TimerInterruptHandler

Critical Paths under _main in BANK0

    _main->_BB_Initialize
    _main->_BB_Write

Critical Paths under _INTERRUPT_InterruptManager in BANK0

    None.

Critical Paths under _main in BANK1

    None.

Critical Paths under _INTERRUPT_InterruptManager in BANK1

    None.

Critical Paths under _main in BANK2

    None.

Critical Paths under _INTERRUPT_InterruptManager in BANK2

    None.

Critical Paths under _main in BANK3

    None.

Critical Paths under _INTERRUPT_InterruptManager in BANK3

    None.

Critical Paths under _main in BANK4

    None.

Critical Paths under _INTERRUPT_InterruptManager in BANK4

    None.

Critical Paths under _main in BANK5

    None.

Critical Paths under _INTERRUPT_InterruptManager in BANK5

    None.

Critical Paths under _main in BANK6

    None.

Critical Paths under _INTERRUPT_InterruptManager in BANK6

    None.

Critical Paths under _main in BANK7

    None.

Critical Paths under _INTERRUPT_InterruptManager in BANK7

    None.

Critical Paths under _main in BANK8

    None.

Critical Paths under _INTERRUPT_InterruptManager in BANK8

    None.

Critical Paths under _main in BANK9

    None.

Critical Paths under _INTERRUPT_InterruptManager in BANK9

    None.

Critical Paths under _main in BANK10

    None.

Critical Paths under _INTERRUPT_InterruptManager in BANK10

    None.

Critical Paths under _main in BANK11

    None.

Critical Paths under _INTERRUPT_InterruptManager in BANK11

    None.

Critical Paths under _main in BANK12

    None.

Critical Paths under _INTERRUPT_InterruptManager in BANK12

    None.

Call Graph Tables:

 ---------------------------------------------------------------------------------
 (Depth) Function   	        Calls       Base Space   Used Autos Params    Refs
 ---------------------------------------------------------------------------------
 (0) _main                                                 1     1      0     410
                                              1 BANK0      1     1      0
                      _BB_Initialize
                           _BB_Write
                  _SYSTEM_Initialize
 ---------------------------------------------------------------------------------
 (1) _SYSTEM_Initialize                                    0     0      0     174
              _OSCILLATOR_Initialize
             _PIN_MANAGER_Initialize
                     _PMD_Initialize
                    _TMR0_Initialize
 ---------------------------------------------------------------------------------
 (2) _TMR0_Initialize                                      0     0      0     174
           _TMR0_SetInterruptHandler
 ---------------------------------------------------------------------------------
 (2) _PMD_Initialize                                       0     0      0       0
 ---------------------------------------------------------------------------------
 (2) _PIN_MANAGER_Initialize                               0     0      0       0
 ---------------------------------------------------------------------------------
 (2) _OSCILLATOR_Initialize                                0     0      0       0
 ---------------------------------------------------------------------------------
 (1) _BB_Write                                             2     2      0      62
                                              3 COMMON     1     1      0
                                              0 BANK0      1     1      0
                   _SWUART_SendBreak
 ---------------------------------------------------------------------------------
 (2) _SWUART_SendBreak                                     1     1      0       0
                                              2 COMMON     1     1      0
 ---------------------------------------------------------------------------------
 (1) _BB_Initialize                                        1     1      0     174
                                              0 BANK0      1     1      0
           _TMR0_SetInterruptHandler
 ---------------------------------------------------------------------------------
 (3) _TMR0_SetInterruptHandler                             2     0      2     174
                                              2 COMMON     2     0      2
 ---------------------------------------------------------------------------------
 Estimated maximum stack depth 3
 ---------------------------------------------------------------------------------
 (Depth) Function   	        Calls       Base Space   Used Autos Params    Refs
 ---------------------------------------------------------------------------------
 (4) _INTERRUPT_InterruptManager                           1     1      0       0
                                              1 COMMON     1     1      0
                           _TMR0_ISR
 ---------------------------------------------------------------------------------
 (5) _TMR0_ISR                                             0     0      0       0
                   Absolute function *
           _BB_TimerInterruptHandler *
       _TMR0_DefaultInterruptHandler *
 ---------------------------------------------------------------------------------
 (6) _TMR0_DefaultInterruptHandler                         0     0      0       0
 ---------------------------------------------------------------------------------
 (6) _BB_TimerInterruptHandler                             1     1      0       0
                                              0 COMMON     1     1      0
 ---------------------------------------------------------------------------------
 (6) Absolute function(Fake)                               0     0      0       0
 ---------------------------------------------------------------------------------
 Estimated maximum stack depth 6
 ---------------------------------------------------------------------------------

 Call Graph Graphs:

 _main (ROOT)
   _BB_Initialize
     _TMR0_SetInterruptHandler
   _BB_Write
     _SWUART_SendBreak
   _SYSTEM_Initialize
     _OSCILLATOR_Initialize
     _PIN_MANAGER_Initialize
     _PMD_Initialize
     _TMR0_Initialize
       _TMR0_SetInterruptHandler

 _INTERRUPT_InterruptManager (ROOT)
   _TMR0_ISR
     Absolute function(Fake) *
     _BB_TimerInterruptHandler *
     _TMR0_DefaultInterruptHandler *

 Address spaces:
Name               Size   Autos  Total    Cost      Usage
BIGRAM             3F0      0       0       0        0.0%
EEDATA             100      0       0       0        0.0%
NULL                 0      0       0       0        0.0%
CODE                 0      0       0       0        0.0%
BITCOMMON            E      0       0       1        0.0%
BITSFR0              0      0       0       1        0.0%
SFR0                 0      0       0       1        0.0%
COMMON               E      4       C       2       85.7%
BITSFR1              0      0       0       2        0.0%
SFR1                 0      0       0       2        0.0%
BITSFR2              0      0       0       3        0.0%
SFR2                 0      0       0       3        0.0%
STACK                0      0       0       3        0.0%
BITBANK0            50      0       0       4        0.0%
BITSFR3              0      0       0       4        0.0%
SFR3                 0      0       0       4        0.0%
BANK0               50      2       B       5       13.8%
BITSFR4              0      0       0       5        0.0%
SFR4                 0      0       0       5        0.0%
BITBANK1            50      0       0       6        0.0%
BITSFR5              0      0       0       6        0.0%
SFR5                 0      0       0       6        0.0%
BANK1               50      0       0       7        0.0%
BITSFR6              0      0       0       7        0.0%
SFR6                 0      0       0       7        0.0%
BITBANK2            50      0       0       8        0.0%
BITSFR7              0      0       0       8        0.0%
SFR7                 0      0       0       8        0.0%
BANK2               50      0       0       9        0.0%
BITSFR8              0      0       0       9        0.0%
SFR8                 0      0       0       9        0.0%
BITBANK3            50      0       0      10        0.0%
BITSFR9              0      0       0      10        0.0%
SFR9                 0      0       0      10        0.0%
BANK3               50      0       0      11        0.0%
BITSFR10             0      0       0      11        0.0%
SFR10                0      0       0      11        0.0%
BITBANK4            50      0       0      12        0.0%
BITSFR11             0      0       0      12        0.0%
SFR11                0      0       0      12        0.0%
BANK4               50      0       0      13        0.0%
BITSFR12             0      0       0      13        0.0%
SFR12                0      0       0      13        0.0%
BITBANK5            50      0       0      14        0.0%
BITSFR13             0      0       0      14        0.0%
SFR13                0      0       0      14        0.0%
BANK5               50      0       0      15        0.0%
BITSFR14             0      0       0      15        0.0%
SFR14                0      0       0      15        0.0%
BITBANK6            50      0       0      16        0.0%
BITSFR15             0      0       0      16        0.0%
SFR15                0      0       0      16        0.0%
BANK6               50      0       0      17        0.0%
BITSFR16             0      0       0      17        0.0%
SFR16                0      0       0      17        0.0%
BITBANK7            50      0       0      18        0.0%
BITSFR17             0      0       0      18        0.0%
SFR17                0      0       0      18        0.0%
BANK7               50      0       0      19        0.0%
BITSFR18             0      0       0      19        0.0%
SFR18                0      0       0      19        0.0%
BITSFR19             0      0       0      20        0.0%
SFR19                0      0       0      20        0.0%
ABS                  0      0      17      20        0.0%
BITBANK8            50      0       0      21        0.0%
BITSFR20             0      0       0      21        0.0%
SFR20                0      0       0      21        0.0%
BANK8               50      0       0      22        0.0%
BITSFR21             0      0       0      22        0.0%
SFR21                0      0       0      22        0.0%
BITBANK9            50      0       0      23        0.0%
BITSFR22             0      0       0      23        0.0%
SFR22                0      0       0      23        0.0%
BANK9               50      0       0      24        0.0%
BITSFR23             0      0       0      24        0.0%
SFR23                0      0       0      24        0.0%
BITBANK10           50      0       0      25        0.0%
BITSFR24             0      0       0      25        0.0%
SFR24                0      0       0      25        0.0%
BANK10              50      0       0      26        0.0%
BITSFR25             0      0       0      26        0.0%
SFR25                0      0       0      26        0.0%
BITBANK11           50      0       0      27        0.0%
BITSFR26             0      0       0      27        0.0%
SFR26                0      0       0      27        0.0%
BANK11              50      0       0      28        0.0%
BITSFR27             0      0       0      28        0.0%
SFR27                0      0       0      28        0.0%
BITBANK12           30      0       0      29        0.0%
BITSFR28             0      0       0      29        0.0%
SFR28                0      0       0      29        0.0%
BANK12              30      0       0      30        0.0%
BITSFR29             0      0       0      30        0.0%
SFR29                0      0       0      30        0.0%
BITSFR30             0      0       0      31        0.0%
SFR30                0      0       0      31        0.0%
DATA                 0      0      17      31        0.0%
BITSFR31             0      0       0      32        0.0%
SFR31                0      0       0      32        0.0%


Microchip Technology PIC Macro Assembler V1.44 build -154322312 
Symbol Table                                                                                   Sun Aug 05 13:20:49 2018

                             __CFG_CP$OFF 0000                               __CFG_LVP$ON 0000  
                                     u307 0045                                       u317 0052  
                                     u327 005F                                       u337 006C  
                            __CFG_CPD$OFF 0000                                       u347 0079  
                                     u357 0086                                       u367 0093  
                                     u297 0038                   __size_of_PMD_Initialize 0008  
                            __CFG_BORV$LO 0000                                       wreg 0009  
                            __CFG_ZCD$OFF 0000                                      l1110 0125  
                                    l1102 0114                                      l1118 0030  
                                    l1094 0106                                      l1096 010F  
                                    l1088 00FB                                      _LATA 0016  
                                    _LATB 0017                                      _LATC 0018  
                                    _LATD 0019                                      _LATE 001A  
                                    _PMD0 0796                                      _PMD1 0797  
                                    _PMD2 0798                                      _PMD3 0799  
                                    _PMD4 079A                                      _PMD5 079B  
                                    _WPUA 0F39                                      _WPUB 0F44  
                                    _WPUC 0F4F                                      _WPUD 0F5A  
                                    _WPUE 0F65                              __CFG_WRT$OFF 0000  
                           __CFG_FCMEN$ON 0000                                      _main 0028  
                                    fsr1h 0007                                      indf1 0001  
                                    fsr1l 0006                                      btemp 007E  
                           __CFG_BOREN$ON 0000                                      start 0014  
                           __CFG_CSWEN$ON 0000                             __CFG_MCLRE$ON 0000  
                        __end_of_BB_Write 0128                   __end_of_TMR0_Initialize 0161  
          ??_TMR0_DefaultInterruptHandler 0075            __size_of_OSCILLATOR_Initialize 0009  
           __end_of_OSCILLATOR_Initialize 0195                                     ?_main 0075  
                           __CFG_WDTE$OFF 0000                            __CFG_DEBUG$OFF 0000  
                                   i1l201 00F8                                     i1l108 000F  
                                   i1l190 00AD                                     i1l194 00D5  
                                   i1l186 009E                                     i1l189 00B5  
                                   i1l198 00E0                                     i1l932 00A5  
                                   i1l944 00BB                                     i1l938 00AE  
                                   i1l958 00D7                                     i1l966 00E6  
                                   _OSCEN 0891                                     _TMR0H 001D  
                                   _TMR0L 001C                                     _TRISA 0011  
                                   _TRISB 0012                                     _TRISC 0013  
                                   _TRISD 0014                                     _TRISE 0015  
       __size_of_TMR0_SetInterruptHandler 0005                 ?_TMR0_SetInterruptHandler 0077  
                        __end_of_TMR0_ISR 018C                                     pclath 000A  
                                   status 0003                                     wtemp0 007E  
                         __initialization 0016                          _SWUART_SendBreak 019D  
                            __end_of_main 009D               ?_INTERRUPT_InterruptManager 0075  
                                  ??_main 0029                                    _ANSELA 0F38  
                                  _ANSELB 0F43                                    _ANSELC 0F4E  
                                  _ANSELD 0F59                                    _ANSELE 0F64  
                      __CFG_RSTOSC$HFINT1 0000                                    _T0CON0 001E  
                                  _T0CON1 001F                                    _ODCONA 0F3A  
                                  _ODCONB 0F45                                    _ODCONC 0F50  
                                  _ODCOND 0F5B                                    _ODCONE 0F66  
                          __CFG_WDTCCS$SC 0000                                    _OSCFRQ 0893  
                          __CFG_PWRTE$OFF 0000                              _swuartTxData 0071  
                            _swuartTxHead 0074         __size_of_BB_TimerInterruptHandler 005C  
                            _swuartTxTail 0073                 ?_BB_TimerInterruptHandler 0075  
                          __CFG_STVREN$ON 0000                          ?_TMR0_Initialize 0075  
                          _PMD_Initialize 0195  TMR0_SetInterruptHandler@InterruptHandler 0077  
                   __end_of_BB_Initialize 0174                                 ?_BB_Write 0075  
                       _SYSTEM_Initialize 0174                   __end_of__initialization 0024  
                      ?_SYSTEM_Initialize 0075                          _swuartTxBitCount 0072  
                          __pcstackCOMMON 0075                       ??_SYSTEM_Initialize 0079  
                               ?_TMR0_ISR 0075                    __end_of_PMD_Initialize 019D  
               __end_of_SYSTEM_Initialize 0180                                __pbssBANK0 0020  
                              ??_BB_Write 0078                                __pnvCOMMON 0079  
                              __pmaintext 0028          __end_of_TMR0_SetInterruptHandler 01A9  
                              ??_TMR0_ISR 0076                           __CFG_PPS1WAY$ON 0000  
                              __pintentry 0004                           ?_PMD_Initialize 0075  
                                 _OSCCON1 088D                                   _OSCCON3 088F  
                                 _OSCTUNE 0892                  __end_of_SWUART_SendBreak 01A4  
                 _swuartTxBufferRemaining 007B                      __CFG_SCANE$available 0000  
                                 __ptext1 0174                                   __ptext2 014E  
                                 __ptext3 0195                                   __ptext4 0128  
                                 __ptext5 018C                                   __ptext6 00F9  
                                 __ptext7 019D                                   __ptext8 0161  
                                 __ptext9 01A4                     _OSCILLATOR_Initialize 018C  
                ??_PIN_MANAGER_Initialize 0077                __size_of_SYSTEM_Initialize 000C  
                    end_of_initialization 0024          __end_of_BB_TimerInterruptHandler 00F9  
                              _serialFlag 0070                     __CFG_WDTCPS$WDTCPS_31 0000  
                _TMR0_SetInterruptHandler 01A4                                BB_Write@tx 0028  
                        __CFG_FEXTOSC$OFF 0000                         __size_of_BB_Write 002F  
                       __size_of_TMR0_ISR 000C                    ?_OSCILLATOR_Initialize 0075  
                     start_initialization 0016                  __size_of_TMR0_Initialize 0013  
         __size_of_PIN_MANAGER_Initialize 0026                  _BB_TimerInterruptHandler 009D  
                        __CFG_LPBOREN$OFF 0000                          ??_PMD_Initialize 0077  
                  __size_of_BB_Initialize 0013                               __pbssCOMMON 0070  
                               ___latbits 0002                             __pcstackBANK0 0028  
                       ?_SWUART_SendBreak 0075                        ??_SWUART_SendBreak 0077  
                   _TMR0_InterruptHandler 0079                                 __pnvBANK0 002A  
                  _PIN_MANAGER_Initialize 0128              ??_INTERRUPT_InterruptManager 0076  
                                _BB_Write 00F9                             _BB_Initialize 0161  
                       ??_TMR0_Initialize 0079                                  _LATBbits 0017  
                                _PIE0bits 0716       __size_of_INTERRUPT_InterruptManager 0010  
              ??_TMR0_SetInterruptHandler 0079                                  _PIR0bits 070C  
                                _TMR0_ISR 0180                            ?_BB_Initialize 0075  
                 ??_OSCILLATOR_Initialize 0077                            _swuartTxBuffer 0020  
                              _T0CON0bits 001E                                  __ptext11 0180  
                                __ptext12 009D                                  __ptext13 01A9  
              ??_BB_TimerInterruptHandler 0075                             __size_of_main 0075  
    __end_of_TMR0_DefaultInterruptHandler 01AA     __size_of_TMR0_DefaultInterruptHandler 0001  
            _TMR0_DefaultInterruptHandler 01A9                      __CFG_WDTCWS$WDTCWS_7 0000  
                                int$flags 007E        __end_of_INTERRUPT_InterruptManager 0014  
              _INTERRUPT_InterruptManager 0004                                _INTCONbits 000B  
                         ??_BB_Initialize 0028                                  intlevel1 0000  
                 ?_PIN_MANAGER_Initialize 0075                         __CFG_CLKOUTEN$OFF 0000  
           ?_TMR0_DefaultInterruptHandler 0075                               _serialState 002A  
               __size_of_SWUART_SendBreak 0007                           _TMR0_Initialize 014E  
          __end_of_PIN_MANAGER_Initialize 014E  
